(dp0
I0
F7.573084074508074e-06
sI1
F6.875563169472798e-06
sI2
F8.412561991022471e-06
sI3
F7.573084074508074e-06
sI4
F6.875563169472798e-06
sI5
F8.412561991022471e-06
sI6
F7.573084074508074e-06
sI7
F6.875563169472798e-06
sI8
F8.412561991022471e-06
sI9
F7.269511390184391e-06
sI10
F7.265925751731572e-06
sI11
F7.274284841152223e-06
sI12
F7.2742174381801306e-06
sI13
F7.256276531641959e-06
sI14
F7.270245738766334e-06
sI15
F7.277596393517882e-06
sI16
F7.2684399374800535e-06
sI17
F7.268359659917678e-06
sI18
F7.26371134307513e-06
sI19
F7.275345820900725e-06
sI20
F7.260244200946175e-06
sI21
F7.255596946809106e-06
sI22
F7.258740237325867e-06
sI23
F7.261185950735438e-06
sI24
F7.272462267504665e-06
sI25
F7.2715379650922785e-06
sI26
F7.271514163686987e-06
sI27
F7.263294437009904e-06
sI28
F7.258541303567512e-06
sI29
F7.257534385018971e-06
sI30
F7.2659595864443816e-06
sI31
F7.268385543213185e-06
sI32
F7.255169552244922e-06
sI33
F7.278423406198442e-06
sI34
F7.261311612882793e-06
sI35
F7.264887469826675e-06
sI36
F7.282205096714733e-06
sI37
F7.28308384623233e-06
sI38
F7.238855111335596e-06
sI39
F7.256603878680323e-06
sI40
F7.268414258465583e-06
sI41
F7.276517371312963e-06
sI42
F7.25925672595551e-06
sI43
F7.264038720311561e-06
sI44
F7.268496228896026e-06
sI45
F7.271574702372163e-06
sI46
F7.2554166004046294e-06
sI47
F7.271284496290775e-06
sI48
F7.2727629625291e-06
sI49
F7.2680674825242875e-06
sI50
F7.272847090344925e-06
sI51
F7.284427010034733e-06
sI52
F7.268228978674074e-06
sI53
F7.261361527621801e-06
sI54
F7.276100256081719e-06
sI55
F7.2555652588235375e-06
sI56
F7.254528704869756e-06
sI57
F7.272971843441667e-06
sI58
F7.267236760810647e-06
sI59
F7.266379985271243e-06
sI60
F7.26508879811405e-06
sI61
F7.270641883216911e-06
sI62
F7.269816666433115e-06
sI63
F7.266307595621413e-06
sI64
F7.263548499558681e-06
sI65
F7.26346774726494e-06
sI66
F7.2690439134603935e-06
sI67
F7.276905138020595e-06
sI68
F7.2751300033147e-06
sI69
F7.27379722453847e-06
sI70
F7.271994141522242e-06
sI71
F7.2726828515001785e-06
sI72
F7.26906300752006e-06
sI73
F7.270814867954556e-06
sI74
F7.272780782496824e-06
sI75
F7.266363952762589e-06
sI76
F7.274306957238963e-06
sI77
F7.2697338429073e-06
sI78
F7.2687904388857305e-06
sI79
F7.2780210986778116e-06
sI80
F7.277024047791514e-06
sI81
F7.268767523438413e-06
sI82
F7.273718911626759e-06
sI83
F7.275342815749042e-06
sI84
F7.2745694668086e-06
sI85
F7.265137808243338e-06
sI86
F7.2797159189619265e-06
sI87
F7.264694809272498e-06
sI88
F7.266902237290651e-06
sI89
F7.262855048040251e-06
sI90
F7.268241088542737e-06
sI91
F7.268418962258494e-06
sI92
F7.267041703951094e-06
sI93
F7.272460918805734e-06
sI94
F7.261420043036537e-06
sI95
F7.2653306628645e-06
sI96
F7.277413753836726e-06
sI97
F7.269193732284407e-06
sI98
F7.2753387456714336e-06
sI99
F7.264248074623225e-06
sI100
F7.27602837713448e-06
sI101
F7.273035354415924e-06
sI102
F7.262003065999778e-06
sI103
F7.273424427634012e-06
sI104
F7.2646729956105105e-06
sI105
F7.274878855323408e-06
sI106
F7.26565864761497e-06
sI107
F7.265413150658873e-06
sI108
F7.272278932379805e-06
sI109
F7.269965712985993e-06
sI110
F7.226720860398217e-06
sI111
F7.31207696968994e-06
sI112
F7.281976504458498e-06
sI113
F7.150141473122318e-06
sI114
F7.18943153632523e-06
sI115
F7.044335648132005e-06
sI116
F6.854041968651359e-06
sI117
F6.889616195326909e-06
sI118
F6.833426735575188e-06
sI119
F6.854440119496985e-06
sI120
F6.853776864268468e-06
sI121
F6.857896102108185e-06
sI122
F6.848789589675164e-06
sI123
F6.874661146571981e-06
sI124
F6.840801037633071e-06
sI125
F6.920142088695513e-06
sI126
F6.808887069276182e-06
sI127
F6.826960582184682e-06
sI128
F6.881152351034814e-06
sI129
F6.908320753673536e-06
sI130
F6.800373650417413e-06
sI131
F6.833586760457422e-06
sI132
F6.874018008140581e-06
sI133
F6.845345105421785e-06
sI134
F6.859283902649338e-06
sI135
F6.842688709429723e-06
sI136
F6.867995482107148e-06
sI137
F6.8137006392632316e-06
sI138
F6.898887853434843e-06
sI139
F6.862932038220748e-06
sI140
F6.84825721863902e-06
sI141
F6.8495820144676145e-06
sI142
F6.863447264304767e-06
sI143
F6.848934663850059e-06
sI144
F6.849484677218243e-06
sI145
F6.850737482189118e-06
sI146
F6.8484271924518225e-06
sI147
F6.834973271807598e-06
sI148
F6.855713829523324e-06
sI149
F6.808884933651171e-06
sI150
F6.875885641743906e-06
sI151
F6.844937738836876e-06
sI152
F6.858094371064993e-06
sI153
F6.869403711640132e-06
sI154
F6.8324465649638455e-06
sI155
F6.861745715625034e-06
sI156
F6.834041584635742e-06
sI157
F7.163256234843374e-06
sI158
F7.174778160035089e-06
sI159
F7.154027838573995e-06
sI160
F7.147952464592322e-06
sI161
F7.180135355167039e-06
sI162
F7.152066142435132e-06
sI163
F7.17985250631159e-06
sI164
F7.15601985579184e-06
sI165
F7.168034818150204e-06
sI166
F7.176469274394748e-06
sI167
F7.144485710597337e-06
sI168
F7.289575371771662e-06
sI169
F7.086141219581066e-06
sI170
F7.114279346964736e-06
sI171
F7.230289908566334e-06
sI172
F7.198034124744623e-06
sI173
F7.150521587728775e-06
sI174
F7.157327759799159e-06
sI175
F7.170802906131257e-06
sI176
F7.178763802517807e-06
sI177
F7.1461634818525965e-06
sI178
F7.10182093133227e-06
sI179
F7.282530295249501e-06
sI180
F7.20120722208506e-06
sI181
F7.1409305761882536e-06
sI182
F7.176397013974878e-06
sI183
F7.158315306288188e-06
sI184
F7.147392106610084e-06
sI185
F7.140627055868265e-06
sI186
F7.196738125436752e-06
sI187
F7.092184616919184e-06
sI188
F7.1742108063155285e-06
sI189
F7.158764689041419e-06
sI190
F7.130817877065709e-06
sI191
F7.182670629379828e-06
sI192
F7.158873333246163e-06
sI193
F7.168511790389687e-06
sI194
F7.151262253479729e-06
sI195
F7.195663527692631e-06
sI196
F7.156822702913956e-06
sI197
F7.165455052415837e-06
sI198
F7.163256234843374e-06
sI199
F7.175898804945291e-06
sI200
F7.171322372823141e-06
sI201
F7.1672387305099505e-06
sI202
F7.159180413385258e-06
sI203
F7.156510967831764e-06
sI204
F7.1532832000009705e-06
sI205
F7.224286319384987e-06
sI206
F7.2427460016122325e-06
sI207
F7.205971140233913e-06
sI208
F7.2654812948158565e-06
sI209
F7.19373010582558e-06
sI210
F7.216682540445163e-06
sI211
F7.230426408710855e-06
sI212
F7.21736660214134e-06
sI213
F7.234526530286445e-06
sI214
F7.23931309165593e-06
sI215
F7.213482630330503e-06
sI216
F7.2645808848470494e-06
sI217
F7.192866326555247e-06
sI218
F7.34835702953518e-06
sI219
F7.1502972600612225e-06
sI220
F7.198013689091454e-06
sI221
F7.291061100644924e-06
sI222
F7.313959134336301e-06
sI223
F7.1596679269703145e-06
sI224
F7.227074570792524e-06
sI225
F7.215807810823094e-06
sI226
F7.24452441147605e-06
sI227
F7.216112710040079e-06
sI228
F7.2188497113323535e-06
sI229
F7.226440795093936e-06
sI230
F7.176910145290094e-06
sI231
F7.256588923976182e-06
sI232
F7.230588631390589e-06
sI233
F7.174186837044516e-06
sI234
F7.237840208507151e-06
sI235
F7.2250449263400185e-06
sI236
F7.216127424936047e-06
sI237
F7.225523644294185e-06
sI238
F7.241935610302619e-06
sI239
F7.196958715649515e-06
sI240
F7.244043100040898e-06
sI241
F7.209013706876988e-06
sI242
F7.227250474528546e-06
sI243
F7.231210797264964e-06
sI244
F7.2214886182031535e-06
sI245
F7.225989771431074e-06
sI246
F7.224286319384987e-06
sI247
F7.23430707072481e-06
sI248
F7.229960098609212e-06
sI249
F7.2264027264346e-06
sI250
F7.219714541317757e-06
sI251
F7.217226544398159e-06
sI252
F7.214406906097537e-06
sI253
F7.352377972225099e-06
sI254
F7.3429203695241085e-06
sI255
F7.362528270604685e-06
sI256
F7.356074240405519e-06
sI257
F7.349698345038291e-06
sI258
F7.3569926781758e-06
sI259
F7.347922525546835e-06
sI260
F7.376505946510292e-06
sI261
F7.322626267125543e-06
sI262
F7.317891728142456e-06
sI263
F7.39541907446295e-06
sI264
F7.320016771394933e-06
sI265
F7.417264980880134e-06
sI266
F7.363330015941472e-06
sI267
F7.337172069910025e-06
sI268
F7.390929383177536e-06
sI269
F7.32592586061287e-06
sI270
F7.41002089643672e-06
sI271
F7.287659032684246e-06
sI272
F7.383871390764796e-06
sI273
F7.328313774479511e-06
sI274
F7.361087559054624e-06
sI275
F7.34193108620218e-06
sI276
F7.381829030705944e-06
sI277
F7.31957850064191e-06
sI278
F7.308839156117131e-06
sI279
F7.40523785580649e-06
sI280
F7.308303199060617e-06
sI281
F7.339270362116679e-06
sI282
F7.355063215364055e-06
sI283
F7.349116582844317e-06
sI284
F7.449254424862772e-06
sI285
F7.28371078118073e-06
sI286
F7.3263679665203085e-06
sI287
F7.387862198449113e-06
sI288
F7.340732551597284e-06
sI289
F7.354715243046428e-06
sI290
F7.3367546606917244e-06
sI291
F7.3492347869574814e-06
sI292
F7.394989840037169e-06
sI293
F7.313390722352153e-06
sI294
F7.407518562096982e-06
sI295
F7.277275574146813e-06
sI296
F7.248174178187128e-06
sI297
F7.369444682048254e-06
sI298
F7.367143515679686e-06
sI299
F7.322034309531489e-06
sI300
F7.345739387432104e-06
sI301
F7.3686468295974805e-06
sI302
F7.360624771912683e-06
sI303
F7.346832290089367e-06
sI304
F7.301486292909942e-06
sI305
F7.291450701885083e-06
sI306
F7.312246182777926e-06
sI307
F7.305125040879545e-06
sI308
F7.299040151842462e-06
sI309
F7.306674198126473e-06
sI310
F7.2967444992855235e-06
sI311
F7.326182928757419e-06
sI312
F7.274026086356855e-06
sI313
F7.270505880896394e-06
sI314
F7.331876294536244e-06
sI315
F7.270126349823158e-06
sI316
F7.369823331160319e-06
sI317
F7.3197436876171196e-06
sI318
F7.269059007164458e-06
sI319
F7.34241294431115e-06
sI320
F7.27844312908843e-06
sI321
F7.37260216077118e-06
sI322
F7.218450832624512e-06
sI323
F7.3172038641544646e-06
sI324
F7.2877862269393745e-06
sI325
F7.3123395596397245e-06
sI326
F7.2858611339654544e-06
sI327
F7.346553259957034e-06
sI328
F7.267591515258687e-06
sI329
F7.32281929849421e-06
sI330
F7.2810395668199135e-06
sI331
F7.259499874123776e-06
sI332
F7.293219459469924e-06
sI333
F7.2999105400484154e-06
sI334
F7.3021268187645205e-06
sI335
F7.364438216583835e-06
sI336
F7.232937729639843e-06
sI337
F7.2498109435770175e-06
sI338
F7.354097616207866e-06
sI339
F7.290970555295928e-06
sI340
F7.304376989480943e-06
sI341
F7.281827229199678e-06
sI342
F7.297430616226563e-06
sI343
F7.341653722292563e-06
sI344
F7.258589331371468e-06
sI345
F7.350429259922464e-06
sI346
F7.2371462191966884e-06
sI347
F7.1964689274395255e-06
sI348
F7.31990312452524e-06
sI349
F7.319223087165483e-06
sI350
F7.269436248513728e-06
sI351
F7.291839597911576e-06
sI352
F7.32267342851145e-06
sI353
F7.3115516290300775e-06
sI354
F7.295251271521863e-06
sI355
F7.352377972225099e-06
sI356
F7.273260661300185e-06
sI357
F7.301486292909942e-06
sI358
F7.322660359854183e-06
sI359
F7.364675499665907e-06
sI360
F7.347579104255431e-06
sI361
F7.4737509248024026e-06
sI362
F7.445933596805787e-06
sI363
F7.420752120346208e-06
sI364
F7.395730773573916e-06
sI365
F7.37116299465157e-06
sI366
F7.32222448363018e-06
sI367
F7.299359539025829e-06
sI368
F7.2781383710918135e-06
sI369
F7.347579104255431e-06
sI370
F7.357031507559952e-06
sI371
F7.352020741535625e-06
sI372
F7.343500829648519e-06
sI373
F7.336899231269456e-06
sI374
F7.402485063146003e-06
sI375
F7.392325753308171e-06
sI376
F7.415564128088192e-06
sI377
F7.397692203703343e-06
sI378
F7.407304225104383e-06
sI379
F7.409669889213433e-06
sI380
F7.399613012992745e-06
sI381
F7.435761888885395e-06
sI382
F7.369311414429092e-06
sI383
F7.398265328362186e-06
sI384
F7.406548599320217e-06
sI385
F7.515149559544909e-06
sI386
F7.354037673046321e-06
sI387
F7.400649081112931e-06
sI388
F7.40470618509903e-06
sI389
F7.4436179051673435e-06
sI390
F7.358303952820222e-06
sI391
F7.454807549933662e-06
sI392
F7.37313597820588e-06
sI393
F7.399010187647548e-06
sI394
F7.406234780127363e-06
sI395
F7.432112310468142e-06
sI396
F7.381258237515453e-06
sI397
F7.3242115812277575e-06
sI398
F7.478013878348122e-06
sI399
F7.376780659207327e-06
sI400
F7.463078611991136e-06
sI401
F7.3578050523437355e-06
sI402
F7.394394904380874e-06
sI403
F7.3897551908785886e-06
sI404
F7.442614953667714e-06
sI405
F7.442147759384454e-06
sI406
F7.312679317195148e-06
sI407
F7.400281736735792e-06
sI408
F7.395526404607722e-06
sI409
F7.438614881394301e-06
sI410
F7.376049726559586e-06
sI411
F7.396604160270215e-06
sI412
F7.389092166576461e-06
sI413
F7.458800961757106e-06
sI414
F7.363356334444404e-06
sI415
F7.368630513759911e-06
sI416
F7.453279092572984e-06
sI417
F7.390540390339595e-06
sI418
F7.464714538940598e-06
sI419
F7.432042223420865e-06
sI420
F7.37757452728971e-06
sI421
F7.388325133916851e-06
sI422
F7.412561538799878e-06
sI423
F7.379239965743523e-06
sI424
F7.411499253429099e-06
sI425
F7.402485063146003e-06
sI426
F7.377597496471822e-06
sI427
F7.412419934738068e-06
sI428
F7.393638489894272e-06
sI429
F7.474872357526863e-06
sI430
F7.45981143612795e-06
sI431
F7.4423435378889735e-06
sI432
F7.421534923501838e-06
sI433
F7.409717426298812e-06
sI434
F7.378232181665112e-06
sI435
F7.368492060955134e-06
sI436
F7.353359875672538e-06
sI437
F7.393638489894272e-06
sI438
F7.403879966894067e-06
sI439
F7.397974854939093e-06
sI440
F7.389828069470639e-06
sI441
F7.3866049854487414e-06
sI442
F7.24963633569331e-06
sI443
F7.257245599134876e-06
sI444
F7.269053090119826e-06
sI445
F7.246685261641517e-06
sI446
F7.252607530539024e-06
sI447
F7.3443821726471015e-06
sI448
F7.198598954261115e-06
sI449
F7.259455019337224e-06
sI450
F7.250070725106639e-06
sI451
F7.198362604654562e-06
sI452
F7.241469806906764e-06
sI453
F7.210869649831864e-06
sI454
F7.2317883699213326e-06
sI455
F7.272285064807704e-06
sI456
F7.255837195963011e-06
sI457
F7.251407740938021e-06
sI458
F7.232583479677146e-06
sI459
F7.216058209635889e-06
sI460
F7.285652591448866e-06
sI461
F7.231679905572719e-06
sI462
F7.279121079228901e-06
sI463
F7.257187303544299e-06
sI464
F7.239816978810154e-06
sI465
F7.284652817851622e-06
sI466
F7.249047786039853e-06
sI467
F7.246474109656731e-06
sI468
F7.239328690289426e-06
sI469
F7.266256015547867e-06
sI470
F7.280515085028583e-06
sI471
F7.251408153940986e-06
sI472
F7.223764559860513e-06
sI473
F6.642730202788272e-06
sI474
F6.6850973881038556e-06
sI475
F6.63748244766893e-06
sI476
F6.726908349019567e-06
sI477
F6.553240178952535e-06
sI478
F6.647308494756032e-06
sI479
F6.637633208406157e-06
sI480
F6.707816532891542e-06
sI481
F6.654508708958673e-06
sI482
F6.651168151350362e-06
sI483
F6.561848332253817e-06
sI484
F6.5801747419769185e-06
sI485
F6.713912000577693e-06
sI486
F6.657189650649542e-06
sI487
F6.742978940099675e-06
sI488
F6.6957727815619705e-06
sI489
F6.598769812127259e-06
sI490
F6.684006578883128e-06
sI491
F6.7322295871363735e-06
sI492
F6.763431212863935e-06
sI493
F6.68707756035225e-06
sI494
F6.850781541112294e-06
sI495
F6.71696224618934e-06
sI496
F6.747743253043836e-06
sI497
F6.652891522573867e-06
sI498
F6.758196751111001e-06
sI499
F6.542841654910703e-06
sI500
F6.617164477251691e-06
sI501
F6.746673061552855e-06
sI502
F6.5828912614307455e-06
sI503
F6.582511119290757e-06
sI504
F6.612629184665764e-06
sI505
F6.680067976549964e-06
sI506
F6.784100773149504e-06
sI507
F6.576605855457274e-06
sI508
F6.618206916719771e-06
sI509
F6.655769540842016e-06
sI510
F6.686648565068509e-06
sI511
F6.6021354938605725e-06
sI512
F6.714089207715546e-06
sI513
F6.567082778907718e-06
sI514
F6.563474723941809e-06
sI515
F6.644950882872536e-06
sI516
F6.622844223258539e-06
sI517
F6.588542555086008e-06
sI518
F6.603400390936542e-06
sI519
F6.610496705139468e-06
sI520
F6.67511030938428e-06
sI521
F6.5498277597164645e-06
sI522
F6.463753114083204e-06
sI523
F6.58806023512426e-06
sI524
F6.667687907579989e-06
sI525
F6.781518063991854e-06
sI526
F6.625863138598476e-06
sI527
F6.6996040982703065e-06
sI528
F6.694590142242163e-06
sI529
F6.663777051052477e-06
sI530
F6.702666313751493e-06
sI531
F6.833647802295673e-06
sI532
F6.678266773807451e-06
sI533
F6.672571568389074e-06
sI534
F6.510163320427864e-06
sI535
F6.575314492496265e-06
sI536
F6.685937961936617e-06
sI537
F6.524428288745554e-06
sI538
F6.705375040993999e-06
sI539
F6.595378641005567e-06
sI540
F6.749359507285391e-06
sI541
F6.517096712066461e-06
sI542
F6.682441176852905e-06
sI543
F6.658092396083504e-06
sI544
F6.628503101069327e-06
sI545
F6.551758235495697e-06
sI546
F6.590557884322834e-06
sI547
F6.577154767928306e-06
sI548
F6.606344826742827e-06
sI549
F6.5943151667524624e-06
sI550
F6.60334537494478e-06
sI551
F6.659016085208691e-06
sI552
F6.710798628351e-06
sI553
F6.678988350383719e-06
sI554
F6.681726154589285e-06
sI555
F6.598769812127259e-06
sI556
F6.698535113702775e-06
sI557
F6.604967041745624e-06
sI558
F6.536798083711659e-06
sI559
F6.665889769941202e-06
sI560
F6.491357255722363e-06
sI561
F6.661940380847664e-06
sI562
F6.467322970493683e-06
sI563
F6.700987176255779e-06
sI564
F6.703655117679119e-06
sI565
F6.495089817981636e-06
sI566
F6.529630142360077e-06
sI567
F6.6426933185148584e-06
sI568
F6.5958784025710315e-06
sI569
F6.713752654707861e-06
sI570
F6.70853905071489e-06
sI571
F6.6539353369421406e-06
sI572
F6.600083301666615e-06
sI573
F6.6027628582432385e-06
sI574
F6.679494111594408e-06
sI575
F6.710688857047842e-06
sI576
F6.623638165947909e-06
sI577
F6.803643111563673e-06
sI578
F6.580367558850497e-06
sI579
F6.687056298471106e-06
sI580
F6.751253469161611e-06
sI581
F6.71982053912501e-06
sI582
F6.648041567469676e-06
sI583
F6.719198942128912e-06
sI584
F6.727303822895436e-06
sI585
F6.6018135509438025e-06
sI586
F6.692852823064754e-06
sI587
F6.72487242736608e-06
sI588
F6.684177395799296e-06
sI589
F6.697877959815912e-06
sI590
F6.608170712851802e-06
sI591
F6.697324794746606e-06
sI592
F6.689130633841245e-06
sI593
F6.647200557541311e-06
sI594
F6.641703012011391e-06
sI595
F6.7108158594564316e-06
sI596
F6.673203888585277e-06
sI597
F6.6907337599175776e-06
sI598
F6.5435615201892006e-06
sI599
F6.803711869451945e-06
sI600
F6.7299912612783785e-06
sI601
F6.657809732857345e-06
sI602
F6.635181864833584e-06
sI603
F6.677780409969358e-06
sI604
F6.6363972570648855e-06
sI605
F6.676351473888786e-06
sI606
F6.853292538799849e-06
sI607
F6.739510582054464e-06
sI608
F6.652027306763841e-06
sI609
F6.6329625090233435e-06
sI610
F6.746036311788828e-06
sI611
F6.608410151542898e-06
sI612
F6.672729337298122e-06
sI613
F6.701996655866793e-06
sI614
F6.645484503575716e-06
sI615
F6.59914356537783e-06
sI616
F6.605755702437932e-06
sI617
F6.550347376066412e-06
sI618
F6.826439202800572e-06
sI619
F6.688657270714771e-06
sI620
F6.651297513649013e-06
sI621
F6.692852823064754e-06
sI622
F6.693383930223007e-06
sI623
F6.67226912165475e-06
sI624
F6.720879972110794e-06
sI625
F6.852716845529017e-06
sI626
F6.716890774249862e-06
sI627
F6.799229817389119e-06
sI628
F6.605247814039927e-06
sI629
F6.63975152059848e-06
sI630
F6.627827642269324e-06
sI631
F6.868987201258392e-06
sI632
F6.676913738790091e-06
sI633
F6.760212353018602e-06
sI634
F6.645527480753088e-06
sI635
F6.695345434959421e-06
sI636
F6.7211598313576815e-06
sI637
F6.633382223952822e-06
sI638
F6.670263038355273e-06
sI639
F6.5708102200412455e-06
sI640
F6.645871440280615e-06
sI641
F6.689484152833103e-06
sI642
F6.643227887792591e-06
sI643
F6.718846554454316e-06
sI644
F6.656418170214451e-06
sI645
F6.684140839485764e-06
sI646
F6.568380202853774e-06
sI647
F6.586421670728981e-06
sI648
F6.666988412895591e-06
sI649
F6.5916063078930165e-06
sI650
F6.602518229925636e-06
sI651
F6.675948756917904e-06
sI652
F6.7936430347970145e-06
sI653
F6.7404902788226195e-06
sI654
F6.6062338572869805e-06
sI655
F6.594119846603519e-06
sI656
F6.788034805804699e-06
sI657
F6.6168913792630235e-06
sI658
F6.7298294015305515e-06
sI659
F6.684814275015327e-06
sI660
F6.772086245110387e-06
sI661
F6.7170237421088075e-06
sI662
F6.725563404641477e-06
sI663
F6.650054894308255e-06
sI664
F6.809045891120746e-06
sI665
F6.6990564016045084e-06
sI666
F6.653016695334912e-06
sI667
F6.703267357188736e-06
sI668
F6.6216416776399e-06
sI669
F6.6126706812497105e-06
sI670
F6.627890527965974e-06
sI671
F6.706798513889112e-06
sI672
F6.699111459784746e-06
sI673
F6.570150782536643e-06
sI674
F6.597586201362304e-06
sI675
F7.241629174536968e-06
sI676
F7.209467530522318e-06
sI677
F7.12892262733078e-06
sI678
F7.218087266114281e-06
sI679
F7.38655527454668e-06
sI680
F7.437255984399371e-06
sI681
F7.001005752016454e-06
sI682
F7.197390621271893e-06
sI683
F7.279080802113924e-06
sI684
F7.239946032022715e-06
sI685
F7.43748795795085e-06
sI686
F7.404706482194712e-06
sI687
F7.220935596130573e-06
sI688
F7.221524024547676e-06
sI689
F7.123756019744576e-06
sI690
F7.277571675512462e-06
sI691
F7.154633597128424e-06
sI692
F7.221572076776539e-06
sI693
F7.134611436310223e-06
sI694
F7.130216152617663e-06
sI695
F7.204237496338806e-06
sI696
F7.391193829420217e-06
sI697
F7.297490234758897e-06
sI698
F7.434646889681318e-06
sI699
F7.386484999205578e-06
sI700
F7.174356766448398e-06
sI701
F7.269342391147404e-06
sI702
F7.048494776284997e-06
sI703
F7.133824076355211e-06
sI704
F7.127059714395756e-06
sI705
F7.1604467621888546e-06
sI706
F7.291813194587604e-06
sI707
F7.461995632951357e-06
sI708
F7.240904142502558e-06
sI709
F7.3020875288598575e-06
sI710
F7.291409338971988e-06
sI711
F7.114096256088942e-06
sI712
F7.094541297991697e-06
sI713
F7.268484461420144e-06
sI714
F7.343176975815879e-06
sI715
F7.151617145151334e-06
sI716
F7.256692224011374e-06
sI717
F7.208719311702083e-06
sI718
F7.3270631220090365e-06
sI719
F7.20361255979185e-06
sI720
F7.270613477494692e-06
sI721
F7.372886184686678e-06
sI722
F7.150881613071647e-06
sI723
F7.156243597261636e-06
sI724
F7.119241810737975e-06
sI725
F7.148072130203076e-06
sI726
F7.133193300479235e-06
sI727
F7.328923453897573e-06
sI728
F7.234948209422498e-06
sI729
F7.500474235921928e-06
sI730
F7.256886101814075e-06
sI731
F7.132557696909458e-06
sI732
F7.04494609049533e-06
sI733
F7.138064180622905e-06
sI734
F7.270486857446912e-06
sI735
F7.3078876305920915e-06
sI736
F7.2808756867992486e-06
sI737
F7.295468286372397e-06
sI738
F7.383366339652753e-06
sI739
F7.1620966872743e-06
sI740
F7.358817015301611e-06
sI741
F7.200120649919484e-06
sI742
F7.621729222417883e-06
sI743
F7.148101424103714e-06
sI744
F7.436625244050532e-06
sI745
F7.123594546243339e-06
sI746
F7.234272679568221e-06
sI747
F7.2189377227083185e-06
sI748
F7.447647506708677e-06
sI749
F7.375369130535603e-06
sI750
F7.21370435341484e-06
sI751
F7.410615984859703e-06
sI752
F7.273006501495871e-06
sI753
F7.4304931905189164e-06
sI754
F7.250282108905992e-06
sI755
F7.209846942579645e-06
sI756
F7.244142954387911e-06
sI757
F7.33140848963032e-06
sI758
F7.033454973992548e-06
sI759
F7.180239175230696e-06
sI760
F7.286356627389523e-06
sI761
F7.264175684973395e-06
sI762
F7.1251469053734695e-06
sI763
F7.10997477293418e-06
sI764
F7.204915294156677e-06
sI765
F7.219896930976688e-06
sI766
F7.243632944575751e-06
sI767
F7.250156486282577e-06
sI768
F7.087614267042852e-06
sI769
F7.433156641312166e-06
sI770
F7.043749471691285e-06
sI771
F7.222809792928331e-06
sI772
F7.335214164516657e-06
sI773
F7.171143471929042e-06
sI774
F7.21741508824536e-06
sI775
F6.907423748536701e-06
sI776
F7.183983765202129e-06
sI777
F7.573084074508074e-06
sI778
F7.241629174536968e-06
sI779
F7.209467530522318e-06
sI780
F7.12892262733078e-06
sI781
F7.218087266114281e-06
sI782
F7.38655527454668e-06
sI783
F7.437255984399371e-06
sI784
F7.001005752016454e-06
sI785
F7.197390621271893e-06
sI786
F7.279080802113924e-06
sI787
F7.239946032022715e-06
sI788
F7.43748795795085e-06
sI789
F7.404706482194712e-06
sI790
F7.220935596130573e-06
sI791
F7.221524024547676e-06
sI792
F7.123756019744576e-06
sI793
F7.277571675512462e-06
sI794
F7.154633597128424e-06
sI795
F7.221572076776539e-06
sI796
F7.134611436310223e-06
sI797
F7.130216152617663e-06
sI798
F7.204237496338806e-06
sI799
F7.391193829420217e-06
sI800
F7.297490234758897e-06
sI801
F7.434646889681318e-06
sI802
F7.386484999205578e-06
sI803
F7.174356766448398e-06
sI804
F7.269342391147404e-06
sI805
F7.048494776284997e-06
sI806
F7.133824076355211e-06
sI807
F7.127059714395756e-06
sI808
F7.1604467621888546e-06
sI809
F7.291813194587604e-06
sI810
F7.461995632951357e-06
sI811
F7.240904142502558e-06
sI812
F7.3020875288598575e-06
sI813
F7.291409338971988e-06
sI814
F7.114096256088942e-06
sI815
F7.094541297991697e-06
sI816
F7.268484461420144e-06
sI817
F7.343176975815879e-06
sI818
F7.151617145151334e-06
sI819
F7.256692224011374e-06
sI820
F7.208719311702083e-06
sI821
F7.3270631220090365e-06
sI822
F7.20361255979185e-06
sI823
F7.270613477494692e-06
sI824
F7.372886184686678e-06
sI825
F7.150881613071647e-06
sI826
F7.156243597261636e-06
sI827
F7.119241810737975e-06
sI828
F7.148072130203076e-06
sI829
F7.133193300479235e-06
sI830
F7.328923453897573e-06
sI831
F7.234948209422498e-06
sI832
F7.500474235921928e-06
sI833
F7.256886101814075e-06
sI834
F7.132557696909458e-06
sI835
F7.04494609049533e-06
sI836
F7.138064180622905e-06
sI837
F7.270486857446912e-06
sI838
F7.3078876305920915e-06
sI839
F7.2808756867992486e-06
sI840
F7.295468286372397e-06
sI841
F7.383366339652753e-06
sI842
F7.1620966872743e-06
sI843
F7.358817015301611e-06
sI844
F7.200120649919484e-06
sI845
F7.621729222417883e-06
sI846
F7.148101424103714e-06
sI847
F7.436625244050532e-06
sI848
F7.123594546243339e-06
sI849
F7.234272679568221e-06
sI850
F7.2189377227083185e-06
sI851
F7.447647506708677e-06
sI852
F7.375369130535603e-06
sI853
F7.21370435341484e-06
sI854
F7.410615984859703e-06
sI855
F7.273006501495871e-06
sI856
F7.4304931905189164e-06
sI857
F7.250282108905992e-06
sI858
F7.209846942579645e-06
sI859
F7.244142954387911e-06
sI860
F7.33140848963032e-06
sI861
F7.033454973992548e-06
sI862
F7.180239175230696e-06
sI863
F7.286356627389523e-06
sI864
F7.264175684973395e-06
sI865
F7.1251469053734695e-06
sI866
F7.10997477293418e-06
sI867
F7.204915294156677e-06
sI868
F7.219896930976688e-06
sI869
F7.243632944575751e-06
sI870
F7.250156486282577e-06
sI871
F7.087614267042852e-06
sI872
F7.433156641312166e-06
sI873
F7.043749471691285e-06
sI874
F7.222809792928331e-06
sI875
F7.335214164516657e-06
sI876
F7.171143471929042e-06
sI877
F7.21741508824536e-06
sI878
F6.907423748536701e-06
sI879
F7.220389893980439e-06
sI880
F7.246531418036994e-06
sI881
F7.298371763386768e-06
sI-1
F88000.0
s.