(dp0
I0
F5.630929043043409e-06
sI1
F5.351050994306661e-06
sI2
F5.934710009647404e-06
sI3
F5.630929043043409e-06
sI4
F5.351050994306661e-06
sI5
F5.934710009647404e-06
sI6
F5.630929043043409e-06
sI7
F5.351050994306661e-06
sI8
F5.934710009647404e-06
sI9
F5.728626947920645e-06
sI10
F5.7248994611569515e-06
sI11
F5.7317545119062174e-06
sI12
F5.729781881402829e-06
sI13
F5.721995122165424e-06
sI14
F5.72936105980304e-06
sI15
F5.73464676989488e-06
sI16
F5.7282312275752645e-06
sI17
F5.7290089179318215e-06
sI18
F5.726210495105022e-06
sI19
F5.733401255980652e-06
sI20
F5.722682208553209e-06
sI21
F5.7201634526826695e-06
sI22
F5.722803089192041e-06
sI23
F5.723739942897765e-06
sI24
F5.727523052723171e-06
sI25
F5.728086437173374e-06
sI26
F5.73006877546689e-06
sI27
F5.72560342915196e-06
sI28
F5.72401088438923e-06
sI29
F5.72257767572637e-06
sI30
F5.727335267824429e-06
sI31
F5.728329472542981e-06
sI32
F5.71956170780652e-06
sI33
F5.736576985881925e-06
sI34
F5.724594986045162e-06
sI35
F5.721851762618968e-06
sI36
F5.738705737279304e-06
sI37
F5.738438315194827e-06
sI38
F5.701117445688908e-06
sI39
F5.722182806700005e-06
sI40
F5.724961977815468e-06
sI41
F5.727812334654914e-06
sI42
F5.724305897292226e-06
sI43
F5.723896245868332e-06
sI44
F5.729059718184715e-06
sI45
F5.7307728011934955e-06
sI46
F5.721228201860384e-06
sI47
F5.723250241729261e-06
sI48
F5.7302171998507845e-06
sI49
F5.7282808763048365e-06
sI50
F5.730182614183121e-06
sI51
F5.737378650838565e-06
sI52
F5.727977618441571e-06
sI53
F5.723548318403715e-06
sI54
F5.732523750356933e-06
sI55
F5.72240034912852e-06
sI56
F5.722028089127917e-06
sI57
F5.734966461723445e-06
sI58
F5.731342466397393e-06
sI59
F5.729511530550013e-06
sI60
F5.727374833508492e-06
sI61
F5.729733643100587e-06
sI62
F5.729655565112068e-06
sI63
F5.726462262156673e-06
sI64
F5.727272131217376e-06
sI65
F5.726535392991394e-06
sI66
F5.729185990066554e-06
sI67
F5.731852811940996e-06
sI68
F5.731066749614655e-06
sI69
F5.7295555104808216e-06
sI70
F5.728855260844767e-06
sI71
F5.730104640555567e-06
sI72
F5.7291186079666545e-06
sI73
F5.729052992897721e-06
sI74
F5.731378553974764e-06
sI75
F5.725498701814047e-06
sI76
F5.7304112530687235e-06
sI77
F5.728112117520112e-06
sI78
F5.727039011027557e-06
sI79
F5.7327181863797705e-06
sI80
F5.731036783362953e-06
sI81
F5.728716361286246e-06
sI82
F5.731647275908358e-06
sI83
F5.731823386145862e-06
sI84
F5.730708065421197e-06
sI85
F5.72535179044209e-06
sI86
F5.733598297918974e-06
sI87
F5.726648905746146e-06
sI88
F5.72839898538291e-06
sI89
F5.724862325973135e-06
sI90
F5.72784056762643e-06
sI91
F5.7272941775821096e-06
sI92
F5.727524583942767e-06
sI93
F5.729630673467767e-06
sI94
F5.7250261233932065e-06
sI95
F5.726843126385717e-06
sI96
F5.732106632461154e-06
sI97
F5.727785679976449e-06
sI98
F5.730582983254351e-06
sI99
F5.726208976764013e-06
sI100
F5.730179087226617e-06
sI101
F5.730449013530148e-06
sI102
F5.723696757886643e-06
sI103
F5.730800588743534e-06
sI104
F5.726972134745267e-06
sI105
F5.73095573441762e-06
sI106
F5.7253472176554965e-06
sI107
F5.727361048535329e-06
sI108
F5.729352734906712e-06
sI109
F5.728487351586153e-06
sI110
F5.684006859407731e-06
sI111
F5.7692865338410115e-06
sI112
F5.708970107320965e-06
sI113
F5.67736318046741e-06
sI114
F5.646562273753375e-06
sI115
F5.2601333129231875e-06
sI116
F5.203696122890733e-06
sI117
F5.218223362746244e-06
sI118
F5.195236096433575e-06
sI119
F5.203561691757841e-06
sI120
F5.2037378579505855e-06
sI121
F5.210568814639771e-06
sI122
F5.1944086330024675e-06
sI123
F5.215414950576758e-06
sI124
F5.196178145094876e-06
sI125
F5.235628725674957e-06
sI126
F5.1817599602266284e-06
sI127
F5.18479274935757e-06
sI128
F5.222593140175036e-06
sI129
F5.2418540414933545e-06
sI130
F5.1659307653828535e-06
sI131
F5.188738211980848e-06
sI132
F5.217105614629958e-06
sI133
F5.203174795020971e-06
sI134
F5.20285368965645e-06
sI135
F5.1914025269717e-06
sI136
F5.218699542730576e-06
sI137
F5.172057267799346e-06
sI138
F5.2365233069728845e-06
sI139
F5.202091564182609e-06
sI140
F5.204886345033799e-06
sI141
F5.203133440545571e-06
sI142
F5.199922310961114e-06
sI143
F5.206965095982952e-06
sI144
F5.188843460679493e-06
sI145
F5.1995407410743155e-06
sI146
F5.19978848201319e-06
sI147
F5.195722545536796e-06
sI148
F5.2041525231416585e-06
sI149
F5.181739869630775e-06
sI150
F5.213620970945243e-06
sI151
F5.20377312307474e-06
sI152
F5.203493029792838e-06
sI153
F5.214613946868951e-06
sI154
F5.1836750856182334e-06
sI155
F5.1986276550231025e-06
sI156
F5.194068347869063e-06
sI157
F5.657181215479312e-06
sI158
F5.667226887329235e-06
sI159
F5.649029796384042e-06
sI160
F5.654939571719808e-06
sI161
F5.659581762351706e-06
sI162
F5.651338222278923e-06
sI163
F5.6658514453467035e-06
sI164
F5.652765549868377e-06
sI165
F5.660112925465199e-06
sI166
F5.668774766043327e-06
sI167
F5.640729919154097e-06
sI168
F5.742570118982826e-06
sI169
F5.604983406737318e-06
sI170
F5.632189250981412e-06
sI171
F5.691285209774577e-06
sI172
F5.681941213531161e-06
sI173
F5.6481438415190155e-06
sI174
F5.658871963465373e-06
sI175
F5.653347624701155e-06
sI176
F5.662533232531075e-06
sI177
F5.65031442167907e-06
sI178
F5.6094623244185016e-06
sI179
F5.747375592335402e-06
sI180
F5.684176032971777e-06
sI181
F5.64096040678308e-06
sI182
F5.663188687332621e-06
sI183
F5.654850742331519e-06
sI184
F5.654422235323864e-06
sI185
F5.63459531477406e-06
sI186
F5.678225908134493e-06
sI187
F5.6062297049130905e-06
sI188
F5.663389107013472e-06
sI189
F5.654618210115814e-06
sI190
F5.64328138352721e-06
sI191
F5.665053482317717e-06
sI192
F5.651532014372407e-06
sI193
F5.660179380750918e-06
sI194
F5.65369340632671e-06
sI195
F5.664324709275803e-06
sI196
F5.658642528771907e-06
sI197
F5.655973506879519e-06
sI198
F5.657181215479312e-06
sI199
F5.66011762348495e-06
sI200
F5.659161318671835e-06
sI201
F5.6582692988804695e-06
sI202
F5.656026424105676e-06
sI203
F5.655508146684696e-06
sI204
F5.654495927487346e-06
sI205
F5.705621633378399e-06
sI206
F5.718603774074182e-06
sI207
F5.692739031282201e-06
sI208
F5.722121998452678e-06
sI209
F5.693288475328018e-06
sI210
F5.7020788291062274e-06
sI211
F5.7084887625791225e-06
sI212
F5.703651487110051e-06
sI213
F5.708552863303851e-06
sI214
F5.716365080399299e-06
sI215
F5.697933601389593e-06
sI216
F5.720867718217448e-06
sI217
F5.693637019188458e-06
sI218
F5.786663256568403e-06
sI219
F5.657224121602411e-06
sI220
F5.687855498148764e-06
sI221
F5.750871222787168e-06
sI222
F5.77108641275359e-06
sI223
F5.657733214370353e-06
sI224
F5.712344252284396e-06
sI225
F5.694433668601562e-06
sI226
F5.716889661222524e-06
sI227
F5.7009555241016585e-06
sI228
F5.699380256185549e-06
sI229
F5.707973329105442e-06
sI230
F5.665661708675884e-06
sI231
F5.7326113194200445e-06
sI232
F5.707320760439671e-06
sI233
F5.67905723336537e-06
sI234
F5.716390451215858e-06
sI235
F5.7023888873075634e-06
sI236
F5.704940931661184e-06
sI237
F5.704891588464989e-06
sI238
F5.712995630346995e-06
sI239
F5.694075646545116e-06
sI240
F5.717032181884463e-06
sI241
F5.693601083933686e-06
sI242
F5.7035270315530795e-06
sI243
F5.70492054929872e-06
sI244
F5.7027214981353325e-06
sI245
F5.70840167180009e-06
sI246
F5.705621633378399e-06
sI247
F5.706234329938553e-06
sI248
F5.70576677194623e-06
sI249
F5.705330287764099e-06
sI250
F5.704120473293273e-06
sI251
F5.703828729330951e-06
sI252
F5.702863318468587e-06
sI253
F5.7494929555090835e-06
sI254
F5.737308779174555e-06
sI255
F5.76258747830849e-06
sI256
F5.74794819119262e-06
sI257
F5.7505979236260885e-06
sI258
F5.746692459229763e-06
sI259
F5.7522876333315764e-06
sI260
F5.759182788001027e-06
sI261
F5.737485655021857e-06
sI262
F5.720553379884308e-06
sI263
F5.785706002292557e-06
sI264
F5.732953393344786e-06
sI265
F5.782642021223694e-06
sI266
F5.756623209673961e-06
sI267
F5.7395917711922095e-06
sI268
F5.7644822728519785e-06
sI269
F5.739166790252881e-06
sI270
F5.786431966470218e-06
sI271
F5.708021089567694e-06
sI272
F5.773890923155278e-06
sI273
F5.7308941303624295e-06
sI274
F5.764912986538917e-06
sI275
F5.732620925069654e-06
sI276
F5.7727485915926025e-06
sI277
F5.724690924857612e-06
sI278
F5.722802464358523e-06
sI279
F5.7812945182256215e-06
sI280
F5.727813422229389e-06
sI281
F5.7445620749163595e-06
sI282
F5.757908772441311e-06
sI283
F5.739775258639668e-06
sI284
F5.820938942413534e-06
sI285
F5.698496742478909e-06
sI286
F5.736575348080919e-06
sI287
F5.766974953580473e-06
sI288
F5.742339635794735e-06
sI289
F5.751714009960551e-06
sI290
F5.744017442577132e-06
sI291
F5.746942076445549e-06
sI292
F5.772369737755412e-06
sI293
F5.728144785610567e-06
sI294
F5.784217659066115e-06
sI295
F5.703847570259768e-06
sI296
F5.6713408560504774e-06
sI297
F5.758989086057653e-06
sI298
F5.7585996384723614e-06
sI299
F5.725950586565887e-06
sI300
F5.7454054207539684e-06
sI301
F5.753291995702625e-06
sI302
F5.754359979626145e-06
sI303
F5.745602218443224e-06
sI304
F5.693105059378922e-06
sI305
F5.680398135421427e-06
sI306
F5.706749637734987e-06
sI307
F5.691125374074346e-06
sI308
F5.694432616554224e-06
sI309
F5.690643457345601e-06
sI310
F5.695514384562728e-06
sI311
F5.70358966989204e-06
sI312
F5.6813792332910396e-06
sI313
F5.6658055616054526e-06
sI314
F5.719922086200313e-06
sI315
F5.676442974777984e-06
sI316
F5.729395836429063e-06
sI317
F5.703958975367129e-06
sI318
F5.67377245630496e-06
sI319
F5.708654278180347e-06
sI320
F5.6843179008225775e-06
sI321
F5.7395495733914e-06
sI322
F5.638890105519323e-06
sI323
F5.707354616912852e-06
sI324
F5.680729526336137e-06
sI325
F5.708569020601573e-06
sI326
F5.6721987791164e-06
sI327
F5.727702232505294e-06
sI328
F5.668279464021708e-06
sI329
F5.703176522153797e-06
sI330
F5.682896156766759e-06
sI331
F5.672376709231486e-06
sI332
F5.690320726614573e-06
sI333
F5.697212356547965e-06
sI334
F5.687687923305873e-06
sI335
F5.741333444220231e-06
sI336
F5.640384409755228e-06
sI337
F5.664498313517896e-06
sI338
F5.721963002525143e-06
sI339
F5.686754328326771e-06
sI340
F5.6955501057665e-06
sI341
F5.6859112147478186e-06
sI342
F5.691349870939888e-06
sI343
F5.714858926086919e-06
sI344
F5.669389905982314e-06
sI345
F5.724378315363765e-06
sI346
F5.653787159776158e-06
sI347
F5.616598878876999e-06
sI348
F5.703136298329525e-06
sI349
F5.7034976244096924e-06
sI350
F5.66887790309778e-06
sI351
F5.687270018928103e-06
sI352
F5.699548003335053e-06
sI353
F5.699397112479687e-06
sI354
F5.688333879483309e-06
sI355
F5.7494929555090835e-06
sI356
F5.6630456510831095e-06
sI357
F5.693105059378922e-06
sI358
F5.7182375092779125e-06
sI359
F5.767976095860661e-06
sI360
F5.746244877702367e-06
sI361
F5.823039073149516e-06
sI362
F5.80633450919521e-06
sI363
F5.790814422645951e-06
sI364
F5.775290500054098e-06
sI365
F5.7604987588888434e-06
sI366
F5.730334697862105e-06
sI367
F5.715667365624455e-06
sI368
F5.7022219239755145e-06
sI369
F5.746244877702367e-06
sI370
F5.74867667424428e-06
sI371
F5.747436449876631e-06
sI372
F5.745101964382826e-06
sI373
F5.7425778337005795e-06
sI374
F5.804396362663056e-06
sI375
F5.791472899030481e-06
sI376
F5.8210368636402166e-06
sI377
F5.798695974057466e-06
sI378
F5.810128504535328e-06
sI379
F5.802258662424009e-06
sI380
F5.805277617731974e-06
sI381
F5.815841562117896e-06
sI382
F5.792957936900933e-06
sI383
F5.794416960913651e-06
sI384
F5.8140542575912946e-06
sI385
F5.868219770999161e-06
sI386
F5.7769884693748e-06
sI387
F5.806535129160295e-06
sI388
F5.801800404547919e-06
sI389
F5.824700480161482e-06
sI390
F5.782543214483127e-06
sI391
F5.850523423056586e-06
sI392
F5.778515428378483e-06
sI393
F5.799002546158505e-06
sI394
F5.811063095162439e-06
sI395
F5.820884934060189e-06
sI396
F5.792566269757771e-06
sI397
F5.751006706855577e-06
sI398
F5.855986545899583e-06
sI399
F5.787631187192943e-06
sI400
F5.844089941753339e-06
sI401
F5.78305607223939e-06
sI402
F5.800567216329711e-06
sI403
F5.7916514739631e-06
sI404
F5.84226617661443e-06
sI405
F5.831859607674517e-06
sI406
F5.7438444875934636e-06
sI407
F5.79885440288308e-06
sI408
F5.808116496641702e-06
sI409
F5.827537564062624e-06
sI410
F5.78784422700096e-06
sI411
F5.804429354494545e-06
sI412
F5.79039178116858e-06
sI413
F5.835953200694632e-06
sI414
F5.78193008138328e-06
sI415
F5.77960139347411e-06
sI416
F5.839346761682407e-06
sI417
F5.797226174664161e-06
sI418
F5.840798794398694e-06
sI419
F5.818920899347546e-06
sI420
F5.78809940599001e-06
sI421
F5.792050744357624e-06
sI422
F5.809678322421519e-06
sI423
F5.780453312898004e-06
sI424
F5.810664034822111e-06
sI425
F5.804396362663056e-06
sI426
F5.77549170044378e-06
sI427
F5.820785612176138e-06
sI428
F5.79684045254325e-06
sI429
F5.837051368029478e-06
sI430
F5.830775397619448e-06
sI431
F5.822576508940358e-06
sI432
F5.809546515855857e-06
sI433
F5.805374500678084e-06
sI434
F5.7887058835248695e-06
sI435
F5.784862972646465e-06
sI436
F5.776982685112841e-06
sI437
F5.79684045254325e-06
sI438
F5.799848169729671e-06
sI439
F5.797228610493477e-06
sI440
F5.796282870118574e-06
sI441
F5.79574752634926e-06
sI442
F5.648418825998647e-06
sI443
F5.647077913284448e-06
sI444
F5.6509732169196525e-06
sI445
F5.645720295266443e-06
sI446
F5.641368947983949e-06
sI447
F5.707559712853083e-06
sI448
F5.613826445927117e-06
sI449
F5.634939028276165e-06
sI450
F5.650482783448041e-06
sI451
F5.620918173576683e-06
sI452
F5.644396251280881e-06
sI453
F5.629536161233517e-06
sI454
F5.630880552498496e-06
sI455
F5.660922440586802e-06
sI456
F5.657365247824231e-06
sI457
F5.642581268006097e-06
sI458
F5.63797391706089e-06
sI459
F5.607148020558839e-06
sI460
F5.673218368862365e-06
sI461
F5.6307805151867285e-06
sI462
F5.672285119828757e-06
sI463
F5.651467014811118e-06
sI464
F5.643671815214191e-06
sI465
F5.670837594173861e-06
sI466
F5.647532369312813e-06
sI467
F5.643971167312856e-06
sI468
F5.6345991366058e-06
sI469
F5.670533835822056e-06
sI470
F5.65562210752546e-06
sI471
F5.648576648642489e-06
sI472
F5.6330038575858055e-06
sI473
F5.4641628390861285e-06
sI474
F5.468688177634462e-06
sI475
F5.478814687265299e-06
sI476
F5.499989813806394e-06
sI477
F5.406800187124361e-06
sI478
F5.470853108757723e-06
sI479
F5.452270888106625e-06
sI480
F5.4884469800065006e-06
sI481
F5.483022978092222e-06
sI482
F5.472492760949521e-06
sI483
F5.370650200120508e-06
sI484
F5.4019189414944435e-06
sI485
F5.505806763395071e-06
sI486
F5.467606613240861e-06
sI487
F5.534299116316532e-06
sI488
F5.476436429674436e-06
sI489
F5.4290168951531825e-06
sI490
F5.480179911199201e-06
sI491
F5.4989379552061735e-06
sI492
F5.560631236356528e-06
sI493
F5.480625092424418e-06
sI494
F5.575663500678729e-06
sI495
F5.5125808775535745e-06
sI496
F5.535180648497118e-06
sI497
F5.4612799740283435e-06
sI498
F5.5589309349013405e-06
sI499
F5.422006591926376e-06
sI500
F5.4573220493736585e-06
sI501
F5.541275686304914e-06
sI502
F5.449862794382199e-06
sI503
F5.427288759296545e-06
sI504
F5.458012934056455e-06
sI505
F5.485672533556141e-06
sI506
F5.56113729421881e-06
sI507
F5.423796330727981e-06
sI508
F5.432860405996109e-06
sI509
F5.475109631891684e-06
sI510
F5.461400833794983e-06
sI511
F5.4406265750372995e-06
sI512
F5.463194157062645e-06
sI513
F5.406345781944211e-06
sI514
F5.4467111423317505e-06
sI515
F5.4752611826636155e-06
sI516
F5.463749956913233e-06
sI517
F5.414895963617994e-06
sI518
F5.441672823902621e-06
sI519
F5.437797719665127e-06
sI520
F5.510447300238752e-06
sI521
F5.412857242426128e-06
sI522
F5.412773052215769e-06
sI523
F5.414657062274841e-06
sI524
F5.497701990653248e-06
sI525
F5.54487537129944e-06
sI526
F5.473755923190993e-06
sI527
F5.491702212756522e-06
sI528
F5.507915718627743e-06
sI529
F5.4735065588840115e-06
sI530
F5.512068727675512e-06
sI531
F5.570464460369351e-06
sI532
F5.4725012985645805e-06
sI533
F5.491751559505431e-06
sI534
F5.360342941518326e-06
sI535
F5.451098128439469e-06
sI536
F5.482169224357847e-06
sI537
F5.42628154498459e-06
sI538
F5.500399148150592e-06
sI539
F5.431797684529727e-06
sI540
F5.5258315749817655e-06
sI541
F5.430380607851504e-06
sI542
F5.501770736326961e-06
sI543
F5.468745839287692e-06
sI544
F5.455050685387874e-06
sI545
F5.425688465177103e-06
sI546
F5.447995332641398e-06
sI547
F5.4229785555470755e-06
sI548
F5.435593027680596e-06
sI549
F5.447465237562454e-06
sI550
F5.412445038821545e-06
sI551
F5.496333376875384e-06
sI552
F5.514983513421612e-06
sI553
F5.444557315215093e-06
sI554
F5.50281173161693e-06
sI555
F5.4290168951531825e-06
sI556
F5.4566638514330634e-06
sI557
F5.464077428740666e-06
sI558
F5.386361488168845e-06
sI559
F5.455771721507574e-06
sI560
F5.409625378316463e-06
sI561
F5.42424859539814e-06
sI562
F5.322177555777685e-06
sI563
F5.499502251815613e-06
sI564
F5.517662350129626e-06
sI565
F5.380212324102018e-06
sI566
F5.4063839973750305e-06
sI567
F5.4652931171794705e-06
sI568
F5.432538994654124e-06
sI569
F5.514187816135774e-06
sI570
F5.454147881778226e-06
sI571
F5.456965118000312e-06
sI572
F5.458967152094374e-06
sI573
F5.454715940267363e-06
sI574
F5.4279995089778765e-06
sI575
F5.423636926238373e-06
sI576
F5.3956812453570535e-06
sI577
F5.464680803868305e-06
sI578
F5.317086926304171e-06
sI579
F5.454819463679428e-06
sI580
F5.4397328628219555e-06
sI581
F5.453385865106242e-06
sI582
F5.401455988707227e-06
sI583
F5.433151756051302e-06
sI584
F5.45548726815781e-06
sI585
F5.388674321427089e-06
sI586
F5.428065192880638e-06
sI587
F5.43067115765794e-06
sI588
F5.4291201359024654e-06
sI589
F5.419255413752211e-06
sI590
F5.3342245229792695e-06
sI591
F5.4133309026482834e-06
sI592
F5.450592690969813e-06
sI593
F5.414241097234651e-06
sI594
F5.38812564876423e-06
sI595
F5.4395885027425095e-06
sI596
F5.427547650871389e-06
sI597
F5.4422604587323065e-06
sI598
F5.351777607298658e-06
sI599
F5.521104155192802e-06
sI600
F5.439286372421748e-06
sI601
F5.421744464495504e-06
sI602
F5.3905030461542935e-06
sI603
F5.437777284456047e-06
sI604
F5.37520608334674e-06
sI605
F5.409030879199861e-06
sI606
F5.538986992181805e-06
sI607
F5.441730575039827e-06
sI608
F5.417547725095062e-06
sI609
F5.423646626034895e-06
sI610
F5.481802221041221e-06
sI611
F5.398057231431608e-06
sI612
F5.4641489322104775e-06
sI613
F5.442962527801853e-06
sI614
F5.402060956338772e-06
sI615
F5.377259118866107e-06
sI616
F5.376808328794169e-06
sI617
F5.35404964097097e-06
sI618
F5.523000893514762e-06
sI619
F5.424959818700614e-06
sI620
F5.411212745443095e-06
sI621
F5.428065192880638e-06
sI622
F5.4352885903163894e-06
sI623
F5.466832083911299e-06
sI624
F5.497075199700774e-06
sI625
F5.528696012557788e-06
sI626
F5.461554975827454e-06
sI627
F5.463458176979685e-06
sI628
F5.4017924062677025e-06
sI629
F5.433547820121731e-06
sI630
F5.387687158631138e-06
sI631
F5.539151308298074e-06
sI632
F5.451225288055639e-06
sI633
F5.471677624768745e-06
sI634
F5.4036078598329595e-06
sI635
F5.409995982308402e-06
sI636
F5.440303064485619e-06
sI637
F5.395800103613624e-06
sI638
F5.426581768830374e-06
sI639
F5.405395937518875e-06
sI640
F5.394080500042975e-06
sI641
F5.426385047968552e-06
sI642
F5.4118027517091605e-06
sI643
F5.455975914836486e-06
sI644
F5.424590325375789e-06
sI645
F5.4433944063347894e-06
sI646
F5.397049334554538e-06
sI647
F5.3835512372479855e-06
sI648
F5.425799952440968e-06
sI649
F5.37993568006101e-06
sI650
F5.329889969818424e-06
sI651
F5.421293804985794e-06
sI652
F5.506233828445062e-06
sI653
F5.460316214289662e-06
sI654
F5.355711339749547e-06
sI655
F5.404673558029316e-06
sI656
F5.490670563990108e-06
sI657
F5.393820609711497e-06
sI658
F5.4554100674675254e-06
sI659
F5.420435000846879e-06
sI660
F5.4629428287711335e-06
sI661
F5.4635269397529385e-06
sI662
F5.454776482283208e-06
sI663
F5.393984373380789e-06
sI664
F5.5137601124854996e-06
sI665
F5.445928363378982e-06
sI666
F5.41102292173079e-06
sI667
F5.420762320795802e-06
sI668
F5.404494032301699e-06
sI669
F5.394277431403083e-06
sI670
F5.428738857116144e-06
sI671
F5.45831449505485e-06
sI672
F5.464251862541403e-06
sI673
F5.366173226217796e-06
sI674
F5.416569522687098e-06
sI675
F5.598577196952448e-06
sI676
F5.583069180747913e-06
sI677
F5.5488453800656146e-06
sI678
F5.599586077043028e-06
sI679
F5.701780897204856e-06
sI680
F5.705958274759837e-06
sI681
F5.470442185018243e-06
sI682
F5.612269187160734e-06
sI683
F5.577882990603911e-06
sI684
F5.609985717747179e-06
sI685
F5.747154862678627e-06
sI686
F5.6715683900421254e-06
sI687
F5.552335909708717e-06
sI688
F5.615379249590546e-06
sI689
F5.52921736840517e-06
sI690
F5.619560917491384e-06
sI691
F5.542139625447362e-06
sI692
F5.550221828354296e-06
sI693
F5.51941878113027e-06
sI694
F5.53986765883252e-06
sI695
F5.557990987004047e-06
sI696
F5.710134337810757e-06
sI697
F5.611326912013936e-06
sI698
F5.759643123326441e-06
sI699
F5.680551625086849e-06
sI700
F5.553926853973934e-06
sI701
F5.660438302967918e-06
sI702
F5.462137414369295e-06
sI703
F5.537306403624598e-06
sI704
F5.5037560264814545e-06
sI705
F5.554819458630789e-06
sI706
F5.65694854692822e-06
sI707
F5.73814160009789e-06
sI708
F5.6330662183690094e-06
sI709
F5.647817274301303e-06
sI710
F5.6280867788416344e-06
sI711
F5.5247269137304045e-06
sI712
F5.4790406842641914e-06
sI713
F5.602062732368296e-06
sI714
F5.621137659339581e-06
sI715
F5.564826816240043e-06
sI716
F5.667004096654438e-06
sI717
F5.595695400373302e-06
sI718
F5.634377596930307e-06
sI719
F5.5913604430912756e-06
sI720
F5.651942552642453e-06
sI721
F5.641854429416782e-06
sI722
F5.5413866335563e-06
sI723
F5.557414068046995e-06
sI724
F5.516896566692964e-06
sI725
F5.5501807136870696e-06
sI726
F5.544257899003924e-06
sI727
F5.62923469704657e-06
sI728
F5.652331711569758e-06
sI729
F5.75067175123678e-06
sI730
F5.6220592172806505e-06
sI731
F5.502112617961075e-06
sI732
F5.4987160673647395e-06
sI733
F5.53673322567505e-06
sI734
F5.58336609790544e-06
sI735
F5.632938518296271e-06
sI736
F5.584561260540966e-06
sI737
F5.586205823693291e-06
sI738
F5.681392596379453e-06
sI739
F5.514694112473961e-06
sI740
F5.647028134880827e-06
sI741
F5.585852717704398e-06
sI742
F5.8750125462303515e-06
sI743
F5.547865403521257e-06
sI744
F5.681032246407369e-06
sI745
F5.510549343501481e-06
sI746
F5.6243388217858126e-06
sI747
F5.595302746019826e-06
sI748
F5.7235589596693615e-06
sI749
F5.708319557484742e-06
sI750
F5.580718670294971e-06
sI751
F5.687907919771362e-06
sI752
F5.629891042691071e-06
sI753
F5.706855450871018e-06
sI754
F5.606573772354295e-06
sI755
F5.592087952699387e-06
sI756
F5.612312860225899e-06
sI757
F5.658128630958714e-06
sI758
F5.4543681637930774e-06
sI759
F5.57989506955181e-06
sI760
F5.594655597018772e-06
sI761
F5.595191373775066e-06
sI762
F5.555085970776474e-06
sI763
F5.53372367573246e-06
sI764
F5.543002155050658e-06
sI765
F5.593925350932949e-06
sI766
F5.607801104812182e-06
sI767
F5.613600243759009e-06
sI768
F5.512901967819062e-06
sI769
F5.6773358321215994e-06
sI770
F5.416514191836086e-06
sI771
F5.585275662411959e-06
sI772
F5.640560583497489e-06
sI773
F5.608683824043226e-06
sI774
F5.5805409453490995e-06
sI775
F5.349185169034598e-06
sI776
F5.308138993243006e-06
sI777
F5.630929043043409e-06
sI778
F5.598577196952448e-06
sI779
F5.583069180747913e-06
sI780
F5.5488453800656146e-06
sI781
F5.599586077043028e-06
sI782
F5.701780897204856e-06
sI783
F5.705958274759837e-06
sI784
F5.470442185018243e-06
sI785
F5.612269187160734e-06
sI786
F5.577882990603911e-06
sI787
F5.609985717747179e-06
sI788
F5.747154862678627e-06
sI789
F5.6715683900421254e-06
sI790
F5.552335909708717e-06
sI791
F5.615379249590546e-06
sI792
F5.52921736840517e-06
sI793
F5.619560917491384e-06
sI794
F5.542139625447362e-06
sI795
F5.550221828354296e-06
sI796
F5.51941878113027e-06
sI797
F5.53986765883252e-06
sI798
F5.557990987004047e-06
sI799
F5.710134337810757e-06
sI800
F5.611326912013936e-06
sI801
F5.759643123326441e-06
sI802
F5.680551625086849e-06
sI803
F5.553926853973934e-06
sI804
F5.660438302967918e-06
sI805
F5.462137414369295e-06
sI806
F5.537306403624598e-06
sI807
F5.5037560264814545e-06
sI808
F5.554819458630789e-06
sI809
F5.65694854692822e-06
sI810
F5.73814160009789e-06
sI811
F5.6330662183690094e-06
sI812
F5.647817274301303e-06
sI813
F5.6280867788416344e-06
sI814
F5.5247269137304045e-06
sI815
F5.4790406842641914e-06
sI816
F5.602062732368296e-06
sI817
F5.621137659339581e-06
sI818
F5.564826816240043e-06
sI819
F5.667004096654438e-06
sI820
F5.595695400373302e-06
sI821
F5.634377596930307e-06
sI822
F5.5913604430912756e-06
sI823
F5.651942552642453e-06
sI824
F5.641854429416782e-06
sI825
F5.5413866335563e-06
sI826
F5.557414068046995e-06
sI827
F5.516896566692964e-06
sI828
F5.5501807136870696e-06
sI829
F5.544257899003924e-06
sI830
F5.62923469704657e-06
sI831
F5.652331711569758e-06
sI832
F5.75067175123678e-06
sI833
F5.6220592172806505e-06
sI834
F5.502112617961075e-06
sI835
F5.4987160673647395e-06
sI836
F5.53673322567505e-06
sI837
F5.58336609790544e-06
sI838
F5.632938518296271e-06
sI839
F5.584561260540966e-06
sI840
F5.586205823693291e-06
sI841
F5.681392596379453e-06
sI842
F5.514694112473961e-06
sI843
F5.647028134880827e-06
sI844
F5.585852717704398e-06
sI845
F5.8750125462303515e-06
sI846
F5.547865403521257e-06
sI847
F5.681032246407369e-06
sI848
F5.510549343501481e-06
sI849
F5.6243388217858126e-06
sI850
F5.595302746019826e-06
sI851
F5.7235589596693615e-06
sI852
F5.708319557484742e-06
sI853
F5.580718670294971e-06
sI854
F5.687907919771362e-06
sI855
F5.629891042691071e-06
sI856
F5.706855450871018e-06
sI857
F5.606573772354295e-06
sI858
F5.592087952699387e-06
sI859
F5.612312860225899e-06
sI860
F5.658128630958714e-06
sI861
F5.4543681637930774e-06
sI862
F5.57989506955181e-06
sI863
F5.594655597018772e-06
sI864
F5.595191373775066e-06
sI865
F5.555085970776474e-06
sI866
F5.53372367573246e-06
sI867
F5.543002155050658e-06
sI868
F5.593925350932949e-06
sI869
F5.607801104812182e-06
sI870
F5.613600243759009e-06
sI871
F5.512901967819062e-06
sI872
F5.6773358321215994e-06
sI873
F5.416514191836086e-06
sI874
F5.585275662411959e-06
sI875
F5.640560583497489e-06
sI876
F5.608683824043226e-06
sI877
F5.5805409453490995e-06
sI878
F5.349185169034598e-06
sI879
F5.580333001020676e-06
sI880
F5.6090643689721276e-06
sI881
F5.665753363359727e-06
sI-1
F100000.0
s.