(dp0
I0
F26648.556434631348
sI1
F25340.038557052612
sI2
F27995.636373519897
sI3
F26648.556434631348
sI4
F25340.038557052612
sI5
F27995.636373519897
sI6
F26648.556434631348
sI7
F25340.038557052612
sI8
F27995.636373519897
sI9
F24730.98091697693
sI10
F24707.905252456665
sI11
F24758.86240196228
sI12
F24746.588443756104
sI13
F24787.36842727661
sI14
F24710.454790115356
sI15
F24669.095083236694
sI16
F24684.77552986145
sI17
F24670.512842178345
sI18
F24769.37606048584
sI19
F24718.472354888916
sI20
F24691.65891456604
sI21
F24740.362073898315
sI22
F24719.062726974487
sI23
F24751.84831237793
sI24
F24744.880363464355
sI25
F24748.355422973633
sI26
F24720.495405197144
sI27
F24737.481090545654
sI28
F24736.79490661621
sI29
F24756.42544555664
sI30
F24724.79174041748
sI31
F24732.237714767456
sI32
F24768.689798355103
sI33
F24695.28624534607
sI34
F24746.420305252075
sI35
F24780.65545272827
sI36
F24691.42911338806
sI37
F24686.750644683838
sI38
F24856.940101623535
sI39
F24748.567070007324
sI40
F24746.702112197876
sI41
F24743.40040397644
sI42
F24744.0457611084
sI43
F24752.786573410034
sI44
F24724.256801605225
sI45
F24723.691873550415
sI46
F24751.553937911987
sI47
F24731.081972122192
sI48
F24719.312965393066
sI49
F24737.06569290161
sI50
F24723.290576934814
sI51
F24693.492128372192
sI52
F24732.4256439209
sI53
F24751.121700286865
sI54
F24720.277000427246
sI55
F24759.24903678894
sI56
F24758.352210998535
sI57
F24701.767421722412
sI58
F24720.94613456726
sI59
F24741.03956222534
sI60
F24745.19744491577
sI61
F24723.029781341553
sI62
F24735.750272750854
sI63
F24739.529695510864
sI64
F24734.157035827637
sI65
F24730.74849510193
sI66
F24730.43376159668
sI67
F24733.420106887817
sI68
F24725.29605102539
sI69
F24730.555862426758
sI70
F24722.9580078125
sI71
F24727.026834487915
sI72
F24732.604564666748
sI73
F24727.08009338379
sI74
F24734.125534057617
sI75
F24735.51298904419
sI76
F24729.302350997925
sI77
F24737.297393798828
sI78
F24737.459884643555
sI79
F24712.39757347107
sI80
F24717.7975730896
sI81
F24733.147750854492
sI82
F24718.957612991333
sI83
F24719.587476730347
sI84
F24720.66329574585
sI85
F24740.35518836975
sI86
F24707.209981918335
sI87
F24735.818210601807
sI88
F24738.119207382202
sI89
F24739.375524520874
sI90
F24737.551593780518
sI91
F24740.78286933899
sI92
F24733.143871307373
sI93
F24726.55812072754
sI94
F24736.615272521973
sI95
F24734.533376693726
sI96
F24720.406885147095
sI97
F24734.3577709198
sI98
F24726.724460601807
sI99
F24735.631868362427
sI100
F24727.54884147644
sI101
F24728.39910697937
sI102
F24737.66660308838
sI103
F24729.148429870605
sI104
F24738.96770477295
sI105
F24722.515600204468
sI106
F24748.071281433105
sI107
F24724.440202713013
sI108
F24731.823905944824
sI109
F24730.36866760254
sI110
F24954.956966400146
sI111
F24527.131244659424
sI112
F27563.923261642456
sI113
F28195.371589660645
sI114
F27945.94688987732
sI115
F27613.464385986328
sI116
F24715.694356918335
sI117
F24687.48864173889
sI118
F24732.22208213806
sI119
F24723.579149246216
sI120
F24711.851106643677
sI121
F24664.60994720459
sI122
F24784.051544189453
sI123
F24673.610370635986
sI124
F24742.713720321655
sI125
F24670.574327468872
sI126
F24746.782054901123
sI127
F24785.202312469482
sI128
F24646.672792434692
sI129
F24716.11290550232
sI130
F24708.771509170532
sI131
F24451.59760284424
sI132
F24987.655981063843
sI133
F24635.49864578247
sI134
F24776.00883293152
sI135
F24809.069061279297
sI136
F24601.11187362671
sI137
F25007.438234329224
sI138
F24414.64146232605
sI139
F24587.025089263916
sI140
F24808.007398605347
sI141
F24717.10002708435
sI142
F24722.61590576172
sI143
F24796.440858840942
sI144
F24579.139274597168
sI145
F24664.772304534912
sI146
F24767.281635284424
sI147
F24731.13129425049
sI148
F24714.559768676758
sI149
F24823.111053466797
sI150
F24664.521814346313
sI151
F24709.3209400177
sI152
F24718.03049659729
sI153
F24876.948806762695
sI154
F24454.34362220764
sI155
F24562.886489868164
sI156
F24695.85893058777
sI157
F28152.417541503906
sI158
F28250.344299316406
sI159
F28071.6294631958
sI160
F28166.461433410645
sI161
F28136.876707077026
sI162
F28165.51743888855
sI163
F28132.090726852417
sI164
F28172.920698165894
sI165
F28138.504528045654
sI166
F28116.88350868225
sI167
F28202.063982009888
sI168
F27947.26150894165
sI169
F28279.334381103516
sI170
F28195.833755493164
sI171
F28093.23021697998
sI172
F28095.15149497986
sI173
F28172.447160720825
sI174
F28002.405324935913
sI175
F28306.79475212097
sI176
F28147.50078201294
sI177
F28154.787950515747
sI178
F28444.599126815796
sI179
F27664.01036643982
sI180
F27966.29458808899
sI181
F28272.617120742798
sI182
F28039.418350219727
sI183
F28205.96095085144
sI184
F28074.6817111969
sI185
F28237.24087524414
sI186
F27954.599895477295
sI187
F28490.328554153442
sI188
F28108.93349456787
sI189
F28169.802654266357
sI190
F28201.704582214355
sI191
F28122.155031204224
sI192
F28201.800455093384
sI193
F28125.982357025146
sI194
F28290.189723968506
sI195
F27995.781496047974
sI196
F28155.072828292847
sI197
F28151.56077003479
sI198
F28152.417541503906
sI199
F28221.139177322388
sI200
F28195.064474105835
sI201
F28171.997426986694
sI202
F28135.552099227905
sI203
F28118.309587478638
sI204
F28103.765199661255
sI205
F28223.402797698975
sI206
F28319.679767608643
sI207
F28128.572980880737
sI208
F28144.58208847046
sI209
F28281.883359909058
sI210
F28244.47918319702
sI211
F28206.31148338318
sI212
F28221.69602394104
sI213
F28226.293855667114
sI214
F28193.172285079956
sI215
F28245.500831604004
sI216
F28210.152671813965
sI217
F28234.620302200317
sI218
F28010.0046710968
sI219
F28352.655897140503
sI220
F28268.171646118164
sI221
F28110.6570854187
sI222
F27843.745275497437
sI223
F28562.54559135437
sI224
F28167.544410705566
sI225
F28295.292098999023
sI226
F28162.635597229004
sI227
F28249.815982818604
sI228
F28146.500705718994
sI229
F28259.899034500122
sI230
F28523.726999282837
sI231
F27974.92407798767
sI232
F28154.29533958435
sI233
F28344.356071472168
sI234
F28183.04489517212
sI235
F28267.163360595703
sI236
F28196.265995025635
sI237
F28233.651538848877
sI238
F28192.372144699097
sI239
F28279.47052192688
sI240
F28154.419095993042
sI241
F28293.66749382019
sI242
F28088.952993392944
sI243
F28259.06104850769
sI244
F28218.17391395569
sI245
F28235.070384979248
sI246
F28223.402797698975
sI247
F28292.3692817688
sI248
F28265.283031463623
sI249
F28241.998023986816
sI250
F28205.050706863403
sI251
F28190.264669418335
sI252
F28179.830450057983
sI253
F27835.896215438843
sI254
F27845.63174057007
sI255
F27825.321031570435
sI256
F27857.427770614624
sI257
F27820.518074035645
sI258
F27971.72322845459
sI259
F27704.842727661133
sI260
F27753.492483139038
sI261
F27938.736875534058
sI262
F27870.29859161377
sI263
F27792.777307510376
sI264
F27859.753074645996
sI265
F27788.009689331055
sI266
F27831.880140304565
sI267
F27841.27646636963
sI268
F27804.572872161865
sI269
F27857.448965072632
sI270
F27742.522520065308
sI271
F27940.970500946045
sI272
F27827.21064376831
sI273
F27842.757831573486
sI274
F27777.12154006958
sI275
F27898.269580841064
sI276
F27728.14924812317
sI277
F27942.910732269287
sI278
F27889.211708068848
sI279
F27765.16670036316
sI280
F27850.27208518982
sI281
F27826.73320198059
sI282
F27697.845516204834
sI283
F28006.141311645508
sI284
F27411.13012123108
sI285
F28165.63615989685
sI286
F27885.4460105896
sI287
F27770.52027130127
sI288
F27886.552806854248
sI289
F27727.13740348816
sI290
F27847.547061920166
sI291
F27829.370470046997
sI292
F27760.421606063843
sI293
F27909.540449142456
sI294
F27609.609643936157
sI295
F28108.372619628906
sI296
F28025.763235092163
sI297
F27748.47898864746
sI298
F27804.499448776245
sI299
F27918.96759414673
sI300
F27926.79640197754
sI301
F27679.582286834717
sI302
F27849.16453552246
sI303
F27829.01222038269
sI304
F28175.238594055176
sI305
F28186.68741798401
sI306
F28161.919342041016
sI307
F28198.004734039307
sI308
F28159.054754257202
sI309
F28317.7117061615
sI310
F28042.712324142456
sI311
F28082.366159439087
sI312
F28278.967599868774
sI313
F28206.64842224121
sI314
F28143.09669494629
sI315
F28200.42991065979
sI316
F28118.85720062256
sI317
F28165.27601623535
sI318
F28192.124744415283
sI319
F28137.646953582764
sI320
F28196.049282073975
sI321
F28066.93381881714
sI322
F28301.844409942627
sI323
F28191.28084564209
sI324
F28161.08064842224
sI325
F28115.527975082397
sI326
F28253.013917922974
sI327
F28013.073776245117
sI328
F28282.83251953125
sI329
F28225.639852523804
sI330
F28119.637315750122
sI331
F28189.23281288147
sI332
F28169.127326965332
sI333
F28073.379461288452
sI334
F28301.53166770935
sI335
F27866.52724456787
sI336
F28529.54426765442
sI337
F28312.98702812195
sI338
F28041.851503372192
sI339
F28225.061485290527
sI340
F28058.064226150513
sI341
F28196.680812835693
sI342
F28162.173292160034
sI343
F28100.306282043457
sI344
F28259.830953598022
sI345
F27951.298908233643
sI346
F28429.992736816406
sI347
F28389.844356536865
sI348
F28067.641218185425
sI349
F28134.783615112305
sI350
F28275.12355041504
sI351
F28293.587549209595
sI352
F27998.729915618896
sI353
F28207.02371788025
sI354
F28157.241729736328
sI355
F27835.896215438843
sI356
F28362.714517593384
sI357
F28175.238594055176
sI358
F28012.329391479492
sI359
F27693.58153152466
sI360
F27841.040842056274
sI361
F27829.21990585327
sI362
F27843.341333389282
sI363
F27854.770542144775
sI364
F27859.10668182373
sI365
F27854.015203475952
sI366
F27836.393632888794
sI367
F27822.483575820923
sI368
F27804.700143814087
sI369
F27841.040842056274
sI370
F27883.740755081177
sI371
F27861.392484664917
sI372
F27824.77684211731
sI373
F27813.32572555542
sI374
F28140.74010658264
sI375
F28127.572074890137
sI376
F28158.597423553467
sI377
F28231.413381576538
sI378
F28051.012771606445
sI379
F28214.881256103516
sI380
F28111.38237762451
sI381
F28114.408418655396
sI382
F28167.457189559937
sI383
F28165.403312683105
sI384
F28117.646755218506
sI385
F28046.40001296997
sI386
F28182.192337036133
sI387
F28137.103183746338
sI388
F28145.614227294922
sI389
F28126.215646743774
sI390
F28157.21483230591
sI391
F28122.563444137573
sI392
F28150.906072616577
sI393
F28136.41798210144
sI394
F28146.44058418274
sI395
F28115.71357536316
sI396
F28158.58522605896
sI397
F28350.064140319824
sI398
F27942.411684036255
sI399
F28212.0570602417
sI400
F27963.51526451111
sI401
F28148.948879241943
sI402
F28118.60697746277
sI403
F28252.446952819824
sI404
F27879.57687187195
sI405
F27992.65662765503
sI406
F28454.975107192993
sI407
F28189.40882873535
sI408
F28048.16453552246
sI409
F27936.799308776855
sI410
F28233.511516571045
sI411
F28131.81462287903
sI412
F28147.518865585327
sI413
F28031.115381240845
sI414
F28225.265001296997
sI415
F28259.75919532776
sI416
F27951.198726654053
sI417
F28169.09913253784
sI418
F27980.57508277893
sI419
F27915.543495178223
sI420
F28269.39038848877
sI421
F28227.09796524048
sI422
F28099.273406982422
sI423
F28114.23950767517
sI424
F28124.576148986816
sI425
F28140.74010658264
sI426
F28274.923860549927
sI427
F28042.01626777649
sI428
F28160.692323684692
sI429
F28283.70387840271
sI430
F28262.673906326294
sI431
F28238.04305458069
sI432
F28217.76086997986
sI433
F28188.265953063965
sI434
F28122.866134643555
sI435
F28072.543035507202
sI436
F28038.690126419067
sI437
F28160.692323684692
sI438
F28195.34365463257
sI439
F28177.257621765137
sI440
F28144.73859977722
sI441
F28131.56607246399
sI442
F28316.75351333618
sI443
F28345.84375
sI444
F28521.764698028564
sI445
F28066.163063049316
sI446
F28380.695499420166
sI447
F28149.97448348999
sI448
F28443.425806045532
sI449
F28474.915252685547
sI450
F28300.94945716858
sI451
F28353.406372070312
sI452
F28280.428226470947
sI453
F28223.825241088867
sI454
F28414.216192245483
sI455
F28168.32857131958
sI456
F28284.543006896973
sI457
F28575.18030357361
sI458
F28438.982913970947
sI459
F28592.582904815674
sI460
F28235.195489883423
sI461
F28424.689710617065
sI462
F28197.57173538208
sI463
F28358.881732940674
sI464
F28324.983280181885
sI465
F28240.9064617157
sI466
F28317.156072616577
sI467
F28315.60446357727
sI468
F28408.29172515869
sI469
F28204.009016036987
sI470
F28297.912322998047
sI471
F28288.76205444336
sI472
F28395.490648269653
sI473
F26648.556434631348
sI474
F26701.773260116577
sI475
F26377.178621292114
sI476
F26768.52891921997
sI477
F26888.842693328857
sI478
F26633.561193466187
sI479
F27219.900846481323
sI480
F26402.853498458862
sI481
F26338.313249588013
sI482
F26708.252296447754
sI483
F27347.425861358643
sI484
F26827.61141204834
sI485
F26753.00672531128
sI486
F26424.153491973877
sI487
F26515.14757347107
sI488
F26393.31048965454
sI489
F26781.84419631958
sI490
F26995.381233215332
sI491
F26482.70809173584
sI492
F26148.198175430298
sI493
F26400.56713294983
sI494
F26232.03688430786
sI495
F26069.817937850952
sI496
F26155.419151306152
sI497
F26513.720958709717
sI498
F26293.220642089844
sI499
F26474.50729560852
sI500
F26599.2540435791
sI501
F26475.98997116089
sI502
F26916.273357391357
sI503
F26962.843063354492
sI504
F26783.762168884277
sI505
F26743.46760749817
sI506
F26401.396223068237
sI507
F26831.807483673096
sI508
F26758.24095916748
sI509
F26625.92383003235
sI510
F26462.433492660522
sI511
F26751.810131072998
sI512
F26699.972951889038
sI513
F26670.498888015747
sI514
F26783.459966659546
sI515
F26770.464994430542
sI516
F26819.6166305542
sI517
F26754.27569961548
sI518
F26641.294679641724
sI519
F26802.465242385864
sI520
F26457.196184158325
sI521
F26555.44443321228
sI522
F26650.714000701904
sI523
F26931.910314559937
sI524
F26653.385969161987
sI525
F26425.280822753906
sI526
F26688.60405921936
sI527
F26480.445337295532
sI528
F26350.851415634155
sI529
F26649.474880218506
sI530
F26393.15039253235
sI531
F26689.985315322876
sI532
F26796.39828300476
sI533
F26600.829586029053
sI534
F26591.839263916016
sI535
F26643.418479919434
sI536
F26309.634775161743
sI537
F26728.69128036499
sI538
F26366.487308502197
sI539
F26825.17698287964
sI540
F26224.015579223633
sI541
F26675.468141555786
sI542
F26529.180532455444
sI543
F26566.24175643921
sI544
F26791.52640914917
sI545
F26502.55586051941
sI546
F26745.63187599182
sI547
F26673.792112350464
sI548
F26884.783094406128
sI549
F27037.489349365234
sI550
F26583.550819396973
sI551
F26516.402862548828
sI552
F26581.581853866577
sI553
F27039.87147140503
sI554
F26509.746419906616
sI555
F26781.84419631958
sI556
F26754.77363204956
sI557
F26529.84489440918
sI558
F26763.058639526367
sI559
F26754.538246154785
sI560
F26728.019077301025
sI561
F27041.502618789673
sI562
F27407.228633880615
sI563
F26770.21717262268
sI564
F26508.107789993286
sI565
F26953.26226234436
sI566
F26784.72696876526
sI567
F26655.551067352295
sI568
F26613.6065864563
sI569
F26379.67882156372
sI570
F27073.225675582886
sI571
F26773.950616836548
sI572
F26316.813455581665
sI573
F26467.183013916016
sI574
F27324.153678894043
sI575
F27430.81113243103
sI576
F28173.561073303223
sI577
F27210.176462173462
sI578
F27841.336988449097
sI579
F27576.09488105774
sI580
F27487.956897735596
sI581
F27677.640674591064
sI582
F27648.575477600098
sI583
F27334.29910469055
sI584
F27237.074350357056
sI585
F27403.430381774902
sI586
F27361.461668014526
sI587
F27454.5167388916
sI588
F27320.18823814392
sI589
F27336.06425857544
sI590
F27864.113037109375
sI591
F27174.181243896484
sI592
F27344.650257110596
sI593
F27721.26425552368
sI594
F27558.143939971924
sI595
F27708.16524887085
sI596
F27086.07770729065
sI597
F27272.48491668701
sI598
F27784.919479370117
sI599
F26850.72166633606
sI600
F27060.89754486084
sI601
F27575.256267547607
sI602
F27162.58198928833
sI603
F27376.388849258423
sI604
F27503.1870136261
sI605
F27490.892498016357
sI606
F26650.630487442017
sI607
F27211.194067001343
sI608
F27230.477695465088
sI609
F26932.297777175903
sI610
F27173.46252822876
sI611
F27346.120988845825
sI612
F27331.819187164307
sI613
F27361.595518112183
sI614
F27483.30756187439
sI615
F27839.084243774414
sI616
F27444.141035079956
sI617
F27467.48336982727
sI618
F26948.599338531494
sI619
F27314.905588150024
sI620
F27497.506130218506
sI621
F27361.461668014526
sI622
F27423.683238983154
sI623
F26898.2436504364
sI624
F26863.07771873474
sI625
F26944.876750946045
sI626
F27021.05114364624
sI627
F27012.26219558716
sI628
F27300.84616279602
sI629
F27287.04549407959
sI630
F27604.510271072388
sI631
F26782.797101974487
sI632
F27241.84076499939
sI633
F26993.326013565063
sI634
F27133.06852531433
sI635
F27479.01819038391
sI636
F27469.981121063232
sI637
F27167.71849822998
sI638
F27237.48980140686
sI639
F27389.120635986328
sI640
F27506.875246047974
sI641
F27284.84390258789
sI642
F27112.18496131897
sI643
F26935.546997070312
sI644
F27309.250286102295
sI645
F27364.69624900818
sI646
F27100.68087387085
sI647
F27463.462100982666
sI648
F27353.636226654053
sI649
F27357.059686660767
sI650
F27676.886798858643
sI651
F27245.06463241577
sI652
F27099.36540222168
sI653
F27364.044178009033
sI654
F27519.029458999634
sI655
F27217.824754714966
sI656
F27115.50869178772
sI657
F27351.98169517517
sI658
F27366.842502593994
sI659
F27679.877248764038
sI660
F27141.10048675537
sI661
F27269.2283039093
sI662
F27365.264177322388
sI663
F27352.70495414734
sI664
F27233.40065383911
sI665
F27325.519634246826
sI666
F27425.564001083374
sI667
F27497.41081237793
sI668
F27368.93363380432
sI669
F27443.95663833618
sI670
F27017.941400527954
sI671
F26838.48275756836
sI672
F27317.083154678345
sI673
F27359.535694122314
sI674
F27113.06428718567
sI675
F28905.985874176025
sI676
F29203.466163635254
sI677
F29275.814491271973
sI678
F28846.79896736145
sI679
F28386.059635162354
sI680
F28931.5828666687
sI681
F29336.307807922363
sI682
F28921.91336250305
sI683
F29247.887872695923
sI684
F28792.613891601562
sI685
F28278.73929786682
sI686
F27810.87734603882
sI687
F29221.93062400818
sI688
F29385.246046066284
sI689
F28419.22245979309
sI690
F29510.540184020996
sI691
F29320.83172607422
sI692
F29750.564727783203
sI693
F29481.95355606079
sI694
F29038.205667495728
sI695
F29578.675218582153
sI696
F28694.786241531372
sI697
F28148.19525718689
sI698
F29878.291919708252
sI699
F28251.961235046387
sI700
F28946.6021900177
sI701
F28606.676559448242
sI702
F29476.229259490967
sI703
F29104.507442474365
sI704
F29421.1648979187
sI705
F29198.37148475647
sI706
F28445.499698638916
sI707
F27829.271350860596
sI708
F28664.883684158325
sI709
F28244.907863616943
sI710
F28837.93310546875
sI711
F29142.737762451172
sI712
F29592.169551849365
sI713
F28959.899549484253
sI714
F28498.587551116943
sI715
F28684.7809715271
sI716
F28767.08358192444
sI717
F28817.10972213745
sI718
F28384.586959838867
sI719
F28686.34927558899
sI720
F28570.986742019653
sI721
F28620.765270233154
sI722
F29067.537157058716
sI723
F29033.242422103882
sI724
F29214.44626235962
sI725
F28826.75972366333
sI726
F28699.55210494995
sI727
F28678.357763290405
sI728
F28875.728874206543
sI729
F29125.520879745483
sI730
F28556.471746444702
sI731
F29175.015647888184
sI732
F29395.30369949341
sI733
F28684.596376419067
sI734
F29425.320022583008
sI735
F28747.160453796387
sI736
F28981.130975723267
sI737
F28973.226652145386
sI738
F28756.57829093933
sI739
F29296.264282226562
sI740
F27888.05223464966
sI741
F28706.566890716553
sI742
F30241.586303710938
sI743
F28303.271926879883
sI744
F28237.339818954468
sI745
F28831.4750957489
sI746
F28534.974668502808
sI747
F28828.27223587036
sI748
F28236.014993667603
sI749
F29123.432949066162
sI750
F28993.952182769775
sI751
F27783.64210319519
sI752
F28430.904373168945
sI753
F29446.798084259033
sI754
F28835.77965927124
sI755
F28794.836910247803
sI756
F28206.045377731323
sI757
F28483.57612800598
sI758
F29697.18246459961
sI759
F28930.47374343872
sI760
F28929.733835220337
sI761
F29060.92315864563
sI762
F28771.86413002014
sI763
F29033.548748016357
sI764
F29800.444969177246
sI765
F28633.006427764893
sI766
F28765.585975646973
sI767
F28811.19066810608
sI768
F29289.64102745056
sI769
F29145.360624313354
sI770
F29543.12194633484
sI771
F28586.726837158203
sI772
F29041.025686264038
sI773
F28637.695219039917
sI774
F29631.00562095642
sI775
F29694.5663356781
sI776
F29817.9639377594
sI777
F25708.34955596924
sI778
F28905.985874176025
sI779
F29203.466163635254
sI780
F29275.814491271973
sI781
F28846.79896736145
sI782
F28386.059635162354
sI783
F28931.5828666687
sI784
F29336.307807922363
sI785
F28921.91336250305
sI786
F29247.887872695923
sI787
F28792.613891601562
sI788
F28278.73929786682
sI789
F27810.87734603882
sI790
F29221.93062400818
sI791
F29385.246046066284
sI792
F28419.22245979309
sI793
F29510.540184020996
sI794
F29320.83172607422
sI795
F29750.564727783203
sI796
F29481.95355606079
sI797
F29038.205667495728
sI798
F29578.675218582153
sI799
F28694.786241531372
sI800
F28148.19525718689
sI801
F29878.291919708252
sI802
F28251.961235046387
sI803
F28946.6021900177
sI804
F28606.676559448242
sI805
F29476.229259490967
sI806
F29104.507442474365
sI807
F29421.1648979187
sI808
F29198.37148475647
sI809
F28445.499698638916
sI810
F27829.271350860596
sI811
F28664.883684158325
sI812
F28244.907863616943
sI813
F28837.93310546875
sI814
F29142.737762451172
sI815
F29592.169551849365
sI816
F28959.899549484253
sI817
F28498.587551116943
sI818
F28684.7809715271
sI819
F28767.08358192444
sI820
F28817.10972213745
sI821
F28384.586959838867
sI822
F28686.34927558899
sI823
F28570.986742019653
sI824
F28620.765270233154
sI825
F29067.537157058716
sI826
F29033.242422103882
sI827
F29214.44626235962
sI828
F28826.75972366333
sI829
F28699.55210494995
sI830
F28678.357763290405
sI831
F28875.728874206543
sI832
F29125.520879745483
sI833
F28556.471746444702
sI834
F29175.015647888184
sI835
F29395.30369949341
sI836
F28684.596376419067
sI837
F29425.320022583008
sI838
F28747.160453796387
sI839
F28981.130975723267
sI840
F28973.226652145386
sI841
F28756.57829093933
sI842
F29296.264282226562
sI843
F27888.05223464966
sI844
F28706.566890716553
sI845
F30241.586303710938
sI846
F28303.271926879883
sI847
F28237.339818954468
sI848
F28831.4750957489
sI849
F28534.974668502808
sI850
F28828.27223587036
sI851
F28236.014993667603
sI852
F29123.432949066162
sI853
F28993.952182769775
sI854
F27783.64210319519
sI855
F28430.904373168945
sI856
F29446.798084259033
sI857
F28835.77965927124
sI858
F28794.836910247803
sI859
F28206.045377731323
sI860
F28483.57612800598
sI861
F29697.18246459961
sI862
F28930.47374343872
sI863
F28929.733835220337
sI864
F29060.92315864563
sI865
F28771.86413002014
sI866
F29033.548748016357
sI867
F29800.444969177246
sI868
F28633.006427764893
sI869
F28765.585975646973
sI870
F28811.19066810608
sI871
F29289.64102745056
sI872
F29145.360624313354
sI873
F29543.12194633484
sI874
F28586.726837158203
sI875
F29041.025686264038
sI876
F28637.695219039917
sI877
F29631.00562095642
sI878
F29694.5663356781
sI879
F29057.440189361572
sI880
F28731.267263412476
sI881
F28428.556493759155
sI-1
F98992.0
s.