(dp0
I0
F4.063623481442846e-05
sI1
F3.998672164229333e-05
sI2
F4.114363332519133e-05
sI3
F4.063623481442846e-05
sI4
F3.998672164229333e-05
sI5
F4.114363332519133e-05
sI6
F4.063623481442846e-05
sI7
F3.998672164229333e-05
sI8
F4.114363332519133e-05
sI9
F4.263643824486962e-05
sI10
F4.2609841639063006e-05
sI11
F4.2658017626706624e-05
sI12
F4.264023814215534e-05
sI13
F4.25800099392859e-05
sI14
F4.2642465370335e-05
sI15
F4.269260772105099e-05
sI16
F4.264244982010723e-05
sI17
F4.265875293540944e-05
sI18
F4.259934828354517e-05
sI19
F4.268403604257287e-05
sI20
F4.261649770498366e-05
sI21
F4.2576884158762596e-05
sI22
F4.260429763291995e-05
sI23
F4.257546471109208e-05
sI24
F4.26083500677521e-05
sI25
F4.2604857689809705e-05
sI26
F4.265403592640382e-05
sI27
F4.262721302694672e-05
sI28
F4.2619157351708736e-05
sI29
F4.2599191406367254e-05
sI30
F4.26275994911407e-05
sI31
F4.2630287364175956e-05
sI32
F4.259551793595051e-05
sI33
F4.2700239770709914e-05
sI34
F4.2612097466587784e-05
sI35
F4.257814668662263e-05
sI36
F4.2701565742930825e-05
sI37
F4.270733288080919e-05
sI38
F4.243569472706099e-05
sI39
F4.261001825156541e-05
sI40
F4.260085091800647e-05
sI41
F4.261046676390379e-05
sI42
F4.261831431406904e-05
sI43
F4.260768060504461e-05
sI44
F4.262919280151323e-05
sI45
F4.2643013962617715e-05
sI46
F4.25962329266838e-05
sI47
F4.263242221114183e-05
sI48
F4.265169539863223e-05
sI49
F4.263329756426515e-05
sI50
F4.2648214176210786e-05
sI51
F4.2706478740939247e-05
sI52
F4.263320224495715e-05
sI53
F4.260541679101948e-05
sI54
F4.266391863794183e-05
sI55
F4.260375643738712e-05
sI56
F4.2597763947327394e-05
sI57
F4.2686380346879105e-05
sI58
F4.265497867805834e-05
sI59
F4.2642935497383405e-05
sI60
F4.262866523774278e-05
sI61
F4.264398136655245e-05
sI62
F4.26450266637346e-05
sI63
F4.2621020941879806e-05
sI64
F4.2629331140631166e-05
sI65
F4.2621194133118934e-05
sI66
F4.264225617234274e-05
sI67
F4.265221812715936e-05
sI68
F4.264480257987202e-05
sI69
F4.2639825597490244e-05
sI70
F4.263482503219507e-05
sI71
F4.264526113573197e-05
sI72
F4.2635185845796286e-05
sI73
F4.262629818541086e-05
sI74
F4.265812353310139e-05
sI75
F4.261602498090156e-05
sI76
F4.264787788343938e-05
sI77
F4.264085038130361e-05
sI78
F4.2622847079343273e-05
sI79
F4.266287540843905e-05
sI80
F4.263842172846921e-05
sI81
F4.263809117688311e-05
sI82
F4.2660449480536045e-05
sI83
F4.26518747040916e-05
sI84
F4.2644333792196676e-05
sI85
F4.261841546338019e-05
sI86
F4.266654680762372e-05
sI87
F4.2624143482328236e-05
sI88
F4.26362586907203e-05
sI89
F4.2617033990666187e-05
sI90
F4.263516065350359e-05
sI91
F4.2629207797517665e-05
sI92
F4.263041968854964e-05
sI93
F4.2645901995541635e-05
sI94
F4.2616844474707705e-05
sI95
F4.2617167153480295e-05
sI96
F4.265433750205716e-05
sI97
F4.2631918812929825e-05
sI98
F4.26499525651991e-05
sI99
F4.26235924422258e-05
sI100
F4.264400639542032e-05
sI101
F4.2646922690181555e-05
sI102
F4.261572212271858e-05
sI103
F4.265203905262638e-05
sI104
F4.2627188513222336e-05
sI105
F4.265106658962736e-05
sI106
F4.2620556058636794e-05
sI107
F4.262946231747833e-05
sI108
F4.264142799570436e-05
sI109
F4.263843482377183e-05
sI110
F4.2254222954341e-05
sI111
F4.296221822741586e-05
sI112
F4.2269449849641205e-05
sI113
F4.227063464412595e-05
sI114
F4.173167801724276e-05
sI115
F3.772190656547991e-05
sI116
F3.792337734864759e-05
sI117
F3.797567126895274e-05
sI118
F3.789268407317081e-05
sI119
F3.7917612999649464e-05
sI120
F3.7926192696602357e-05
sI121
F3.797067232724771e-05
sI122
F3.7859321349031916e-05
sI123
F3.799759368661171e-05
sI124
F3.787585449899211e-05
sI125
F3.80631017300459e-05
sI126
F3.782690122378085e-05
sI127
F3.779058558350812e-05
sI128
F3.805596042738557e-05
sI129
F3.81462712972791e-05
sI130
F3.7701846466120514e-05
sI131
F3.784950453677993e-05
sI132
F3.797553561568634e-05
sI133
F3.7927458858888485e-05
sI134
F3.7912614015311874e-05
sI135
F3.7822736505432886e-05
sI136
F3.804651042216278e-05
sI137
F3.768346367039044e-05
sI138
F3.816506637477346e-05
sI139
F3.7902264580225165e-05
sI140
F3.793552079045526e-05
sI141
F3.792908922406468e-05
sI142
F3.78677230550295e-05
sI143
F3.797813995376487e-05
sI144
F3.776941459676664e-05
sI145
F3.788950336414132e-05
sI146
F3.790583469864828e-05
sI147
F3.7885113670199644e-05
sI148
F3.7925095398350095e-05
sI149
F3.782949589492546e-05
sI150
F3.796162306457518e-05
sI151
F3.7933964318170865e-05
sI152
F3.791326908597625e-05
sI153
F3.7974121923411985e-05
sI154
F3.776609016270527e-05
sI155
F3.7865343973209065e-05
sI156
F3.7865913085965985e-05
sI157
F4.186456941468464e-05
sI158
F4.193463876234205e-05
sI159
F4.180735932735047e-05
sI160
F4.1880929874338335e-05
sI161
F4.184592252798325e-05
sI162
F4.184286228081646e-05
sI163
F4.189679407318181e-05
sI164
F4.1831802160885445e-05
sI165
F4.188646169112076e-05
sI166
F4.1939398371937386e-05
sI167
F4.175840008713294e-05
sI168
F4.241309234132018e-05
sI169
F4.1528864940687527e-05
sI170
F4.175064002254203e-05
sI171
F4.201976728168688e-05
sI172
F4.1999963428906995e-05
sI173
F4.181509916989512e-05
sI174
F4.1916951314391326e-05
sI175
F4.1763446986919917e-05
sI176
F4.1892468697568574e-05
sI177
F4.182757606230325e-05
sI178
F4.149862474633892e-05
sI179
F4.254094497468941e-05
sI180
F4.2069687502532815e-05
sI181
F4.1739635541659936e-05
sI182
F4.19234989514905e-05
sI183
F4.1838775349134494e-05
sI184
F4.189042217461747e-05
sI185
F4.170785777901642e-05
sI186
F4.199138110294598e-05
sI187
F4.15348091351575e-05
sI188
F4.18994621895763e-05
sI189
F4.185028685910197e-05
sI190
F4.1809023763050845e-05
sI191
F4.189339864169028e-05
sI192
F4.180725125735307e-05
sI193
F4.1889660899130376e-05
sI194
F4.182504528671416e-05
sI195
F4.1857181511062436e-05
sI196
F4.186815987949899e-05
sI197
F4.1853303279992815e-05
sI198
F4.186456941468464e-05
sI199
F4.184082190406002e-05
sI200
F4.1850750516658763e-05
sI201
F4.185942103163143e-05
sI202
F4.186953037788044e-05
sI203
F4.187629804519588e-05
sI204
F4.187919480003188e-05
sI205
F4.226928646389183e-05
sI206
F4.23424122857341e-05
sI207
F4.21967739647755e-05
sI208
F4.232370990919776e-05
sI209
F4.222810810716737e-05
sI210
F4.225163870685833e-05
sI211
F4.2283760151917704e-05
sI212
F4.2258318408983087e-05
sI213
F4.228545192574984e-05
sI214
F4.232532380044063e-05
sI215
F4.222921863927809e-05
sI216
F4.2303586905489965e-05
sI217
F4.224178233158682e-05
sI218
F4.2767697681966865e-05
sI219
F4.19712225472324e-05
sI220
F4.21688478091653e-05
sI221
F4.2525224262845995e-05
sI222
F4.2780257867747196e-05
sI223
F4.1881221186201856e-05
sI224
F4.233266474074071e-05
sI225
F4.217781755144756e-05
sI226
F4.234454727480852e-05
sI227
F4.223783287216065e-05
sI228
F4.224928362006608e-05
sI229
F4.227430762782092e-05
sI230
F4.198547959077814e-05
sI231
F4.246259704387967e-05
sI232
F4.228208322487603e-05
sI233
F4.213397180663492e-05
sI234
F4.232020689443061e-05
sI235
F4.221869466292105e-05
sI236
F4.228166995190463e-05
sI237
F4.225804478252826e-05
sI238
F4.229658966536931e-05
sI239
F4.2222996377461186e-05
sI240
F4.234679528991592e-05
sI241
F4.2176649412084544e-05
sI242
F4.225110732392068e-05
sI243
F4.2222270160152675e-05
sI244
F4.225091359799649e-05
sI245
F4.225262076218428e-05
sI246
F4.226928646389183e-05
sI247
F4.2225892020297806e-05
sI248
F4.2241347170346444e-05
sI249
F4.225401344370994e-05
sI250
F4.227245764809595e-05
sI251
F4.228171362186117e-05
sI252
F4.2283960212330385e-05
sI253
F4.242854484814984e-05
sI254
F4.233333395120553e-05
sI255
F4.253094185813211e-05
sI256
F4.23854987943173e-05
sI257
F4.245949611103583e-05
sI258
F4.238553844970738e-05
sI259
F4.247107813881712e-05
sI260
F4.246056570522683e-05
sI261
F4.238834047498585e-05
sI262
F4.223711452411294e-05
sI263
F4.266804293351356e-05
sI264
F4.233837642786398e-05
sI265
F4.2609328819054326e-05
sI266
F4.246034491117712e-05
sI267
F4.2384295291242324e-05
sI268
F4.2474205919518226e-05
sI269
F4.239690652241279e-05
sI270
F4.264883256155372e-05
sI271
F4.218137756240026e-05
sI272
F4.258475271612383e-05
sI273
F4.230947805083929e-05
sI274
F4.2542103273035536e-05
sI275
F4.23059911796031e-05
sI276
F4.2579497510075726e-05
sI277
F4.22698297981583e-05
sI278
F4.228350139356962e-05
sI279
F4.258791404865292e-05
sI280
F4.233684296650608e-05
sI281
F4.2410688788407924e-05
sI282
F4.252535736171126e-05
sI283
F4.231652413722031e-05
sI284
F4.293251303266743e-05
sI285
F4.206572092257943e-05
sI286
F4.236173683480615e-05
sI287
F4.251884277550744e-05
sI288
F4.2377736630072604e-05
sI289
F4.247384904942919e-05
sI290
F4.242046815150502e-05
sI291
F4.240571165681217e-05
sI292
F4.256990024487095e-05
sI293
F4.2295545515713684e-05
sI294
F4.2765001460054464e-05
sI295
F4.2010847906226445e-05
sI296
F4.1876725248357616e-05
sI297
F4.250642231085067e-05
sI298
F4.2507402771008174e-05
sI299
F4.219723167153688e-05
sI300
F4.23741828505797e-05
sI301
F4.2445519170541957e-05
sI302
F4.2446078072799764e-05
sI303
F4.241289458306596e-05
sI304
F4.1908529475165324e-05
sI305
F4.1810091786942394e-05
sI306
F4.201429400652046e-05
sI307
F4.1860611663224745e-05
sI308
F4.194071842533731e-05
sI309
F4.1867757552438434e-05
sI310
F4.1947512873008463e-05
sI311
F4.194763655007705e-05
sI312
F4.18642295549887e-05
sI313
F4.172628359100372e-05
sI314
F4.208745001221814e-05
sI315
F4.1814896110992095e-05
sI316
F4.2112483161105274e-05
sI317
F4.195692154596031e-05
sI318
F4.1822096061849834e-05
sI319
F4.195705451692788e-05
sI320
F4.188092285772882e-05
sI321
F4.218655307397512e-05
sI322
F4.158390812847301e-05
sI323
F4.200182862490465e-05
sI324
F4.182767978733182e-05
sI325
F4.201989575847165e-05
sI326
F4.1759744139113764e-05
sI327
F4.2131529077948926e-05
sI328
F4.175140476903039e-05
sI329
F4.192848471618049e-05
sI330
F4.1873166132688766e-05
sI331
F4.181991288021436e-05
sI332
F4.189941217802584e-05
sI333
F4.196832542646689e-05
sI334
F4.183510164423865e-05
sI335
F4.225613719555099e-05
sI336
F4.152734609519371e-05
sI337
F4.174301147585879e-05
sI338
F4.207443590686921e-05
sI339
F4.1862477608844983e-05
sI340
F4.195687812114102e-05
sI341
F4.1889034459785535e-05
sI342
F4.189702108448046e-05
sI343
F4.204500382698484e-05
sI344
F4.175845948140022e-05
sI345
F4.2226967277514404e-05
sI346
F4.153355848046658e-05
sI347
F4.135712222463894e-05
sI348
F4.200201994564168e-05
sI349
F4.199545147187678e-05
sI350
F4.1670928677461916e-05
sI351
F4.184055840283918e-05
sI352
F4.194056982242955e-05
sI353
F4.193201123570134e-05
sI354
F4.18875944099284e-05
sI355
F4.242854484814984e-05
sI356
F4.163977913052008e-05
sI357
F4.1908529475165324e-05
sI358
F4.214513434774858e-05
sI359
F4.2612748153203484e-05
sI360
F4.2403983307792714e-05
sI361
F4.2825993535444695e-05
sI362
F4.273246960906363e-05
sI363
F4.2644312554074304e-05
sI364
F4.255791634477646e-05
sI365
F4.247819757807747e-05
sI366
F4.231424262357564e-05
sI367
F4.223243235657037e-05
sI368
F4.215906507809564e-05
sI369
F4.2403983307792714e-05
sI370
F4.238402868139701e-05
sI371
F4.2394979601567684e-05
sI372
F4.241124565140808e-05
sI373
F4.240950505618457e-05
sI374
F4.293412435885102e-05
sI375
F4.28310080025085e-05
sI376
F4.306691601030366e-05
sI377
F4.29034848608012e-05
sI378
F4.296508610224237e-05
sI379
F4.2868434096732244e-05
sI380
F4.2960725355811746e-05
sI381
F4.2953927966493666e-05
sI382
F4.2913999585891816e-05
sI383
F4.2856515857891964e-05
sI384
F4.3009245171532484e-05
sI385
F4.3299844673327925e-05
sI386
F4.277728157475735e-05
sI387
F4.295635985229751e-05
sI388
F4.290714020882547e-05
sI389
F4.301534050199507e-05
sI390
F4.2846596066681286e-05
sI391
F4.324187606030705e-05
sI392
F4.276060288432859e-05
sI393
F4.289788326516941e-05
sI394
F4.2979731567527324e-05
sI395
F4.3033790280588846e-05
sI396
F4.286269589570679e-05
sI397
F4.2613031748572894e-05
sI398
F4.324252407528206e-05
sI399
F4.283380671665782e-05
sI400
F4.317126865061027e-05
sI401
F4.284472430882147e-05
sI402
F4.2914947840699824e-05
sI403
F4.282441109992874e-05
sI404
F4.3246465523338884e-05
sI405
F4.31209733520177e-05
sI406
F4.253235806928046e-05
sI407
F4.287811022152255e-05
sI408
F4.300495242759439e-05
sI409
F4.310982535571384e-05
sI410
F4.28229550770709e-05
sI411
F4.29469529557025e-05
sI412
F4.28420556772835e-05
sI413
F4.313441875325452e-05
sI414
F4.27899288766298e-05
sI415
F4.26683881435963e-05
sI416
F4.3317975940482256e-05
sI417
F4.288734470847544e-05
sI418
F4.318612698028801e-05
sI419
F4.305914627522611e-05
sI420
F4.277465768254274e-05
sI421
F4.278352686171161e-05
sI422
F4.298056505547265e-05
sI423
F4.273556442768722e-05
sI424
F4.297772937889022e-05
sI425
F4.293412435885102e-05
sI426
F4.2663121085695366e-05
sI427
F4.309992596063239e-05
sI428
F4.2871260074406337e-05
sI429
F4.301144565488357e-05
sI430
F4.299653232209266e-05
sI431
F4.297137643050064e-05
sI432
F4.290365592041212e-05
sI433
F4.290477897939127e-05
sI434
F4.2841614568800424e-05
sI435
F4.284854195901744e-05
sI436
F4.28207580185358e-05
sI437
F4.2871260074406337e-05
sI438
F4.285565837491845e-05
sI439
F4.285332569153866e-05
sI440
F4.288426513454624e-05
sI441
F4.289490784259442e-05
sI442
F4.160661665508769e-05
sI443
F4.158223226369273e-05
sI444
F4.154401957023879e-05
sI445
F4.1569520799811244e-05
sI446
F4.15423138875326e-05
sI447
F4.203993879769996e-05
sI448
F4.138003436082727e-05
sI449
F4.1489977910202924e-05
sI450
F4.1619341587306735e-05
sI451
F4.148976458040465e-05
sI452
F4.158092142603209e-05
sI453
F4.153465427592096e-05
sI454
F4.14581845618045e-05
sI455
F4.17087906754432e-05
sI456
F4.1679374319869567e-05
sI457
F4.152272066448859e-05
sI458
F4.149143592258042e-05
sI459
F4.126242186330842e-05
sI460
F4.1757624959615214e-05
sI461
F4.147709587343229e-05
sI462
F4.1779900659122404e-05
sI463
F4.162746681402041e-05
sI464
F4.158304103896171e-05
sI465
F4.17388562823362e-05
sI466
F4.161147211334537e-05
sI467
F4.156855386483471e-05
sI468
F4.148767098044459e-05
sI469
F4.178585021463732e-05
sI470
F4.162412896491219e-05
sI471
F4.159734900710532e-05
sI472
F4.151102881522206e-05
sI473
F4.206866261924347e-05
sI474
F4.179085474831368e-05
sI475
F4.223489733234942e-05
sI476
F4.2203173467925126e-05
sI477
F4.1686417830533173e-05
sI478
F4.207402810507688e-05
sI479
F4.171126242624723e-05
sI480
F4.218862092919551e-05
sI481
F4.226746752955535e-05
sI482
F4.2073620971194714e-05
sI483
F4.127050629776363e-05
sI484
F4.167909517249768e-05
sI485
F4.237496900216797e-05
sI486
F4.2136805554093826e-05
sI487
F4.24716814215742e-05
sI488
F4.206920661609104e-05
sI489
F4.185352935870412e-05
sI490
F4.200307902380018e-05
sI491
F4.2318728429080466e-05
sI492
F4.276378855472274e-05
sI493
F4.2317672091840564e-05
sI494
F4.277469042968107e-05
sI495
F4.25153739946893e-05
sI496
F4.249174482495732e-05
sI497
F4.211863653935666e-05
sI498
F4.275459744995658e-05
sI499
F4.186239350900678e-05
sI500
F4.205292329473309e-05
sI501
F4.260820830026546e-05
sI502
F4.200430354117657e-05
sI503
F4.162799648810278e-05
sI504
F4.1871114532909814e-05
sI505
F4.219828068841025e-05
sI506
F4.2643717108603596e-05
sI507
F4.1831383835955194e-05
sI508
F4.1830986159396844e-05
sI509
F4.2231273855719564e-05
sI510
F4.2079087778645885e-05
sI511
F4.186190103538934e-05
sI512
F4.203944604697085e-05
sI513
F4.165208284234723e-05
sI514
F4.209821362088917e-05
sI515
F4.2127625381027656e-05
sI516
F4.203578832573385e-05
sI517
F4.160449670109756e-05
sI518
F4.2009264483056086e-05
sI519
F4.1857672496092846e-05
sI520
F4.245325046881021e-05
sI521
F4.1823950624575446e-05
sI522
F4.183910636612609e-05
sI523
F4.176308131143003e-05
sI524
F4.233268559872272e-05
sI525
F4.2577398176035786e-05
sI526
F4.222378791141068e-05
sI527
F4.231223668504924e-05
sI528
F4.248744422241657e-05
sI529
F4.220339825522501e-05
sI530
F4.242289971223556e-05
sI531
F4.2825693231662854e-05
sI532
F4.20604279973702e-05
sI533
F4.218339172012975e-05
sI534
F4.120669123253151e-05
sI535
F4.2115736688330685e-05
sI536
F4.213235757077882e-05
sI537
F4.1967916647678294e-05
sI538
F4.235950524389409e-05
sI539
F4.186499996805537e-05
sI540
F4.24027442385011e-05
sI541
F4.186141164552737e-05
sI542
F4.225477651687015e-05
sI543
F4.2053306536615764e-05
sI544
F4.203557933735169e-05
sI545
F4.1922507204361636e-05
sI546
F4.201051355678942e-05
sI547
F4.185698051983877e-05
sI548
F4.191556787347395e-05
sI549
F4.19897489507548e-05
sI550
F4.170808107062385e-05
sI551
F4.224936625618625e-05
sI552
F4.241844426289276e-05
sI553
F4.1770597956514166e-05
sI554
F4.2357164559803095e-05
sI555
F4.185352935870412e-05
sI556
F4.199748702404804e-05
sI557
F4.2100915869980327e-05
sI558
F4.152342574315071e-05
sI559
F4.19859429534597e-05
sI560
F4.193071188396402e-05
sI561
F4.156436674840336e-05
sI562
F4.131356396364083e-05
sI563
F4.2293714027863416e-05
sI564
F4.255064670743991e-05
sI565
F4.16583797928638e-05
sI566
F4.1801648851702566e-05
sI567
F4.198836852964405e-05
sI568
F4.179280064064983e-05
sI569
F4.2460631227925205e-05
sI570
F4.171246398243511e-05
sI571
F4.1947194379332586e-05
sI572
F4.2157403555620476e-05
sI573
F4.202365328609403e-05
sI574
F4.13730618689101e-05
sI575
F4.1222095291004734e-05
sI576
F4.118215334969477e-05
sI577
F4.157889858547037e-05
sI578
F4.0523553902716e-05
sI579
F4.153425411246303e-05
sI580
F4.123947468670508e-05
sI581
F4.144750749546233e-05
sI582
F4.1172265948574704e-05
sI583
F4.131064833501341e-05
sI584
F4.1579942791969415e-05
sI585
F4.119552242443092e-05
sI586
F4.135740588750991e-05
sI587
F4.132669463530192e-05
sI588
F4.1430032263534144e-05
sI589
F4.1362040803960554e-05
sI590
F4.057941196933257e-05
sI591
F4.108543347314253e-05
sI592
F4.152698278403477e-05
sI593
F4.113697716334741e-05
sI594
F4.114520617548578e-05
sI595
F4.141434989790582e-05
sI596
F4.1389131270719304e-05
sI597
F4.148427674266486e-05
sI598
F4.075563768068946e-05
sI599
F4.212918734936011e-05
sI600
F4.150177735340321e-05
sI601
F4.12918352452607e-05
sI602
F4.122677223250548e-05
sI603
F4.144733467725814e-05
sI604
F4.1073339843933354e-05
sI605
F4.124506669356265e-05
sI606
F4.227027467429423e-05
sI607
F4.141281174341316e-05
sI608
F4.147441885038461e-05
sI609
F4.15159882827254e-05
sI610
F4.1796931181892205e-05
sI611
F4.1116508128880014e-05
sI612
F4.158200388815203e-05
sI613
F4.141341500840667e-05
sI614
F4.1156263453245856e-05
sI615
F4.106322742458701e-05
sI616
F4.09990231915458e-05
sI617
F4.0869457720305036e-05
sI618
F4.20851341846884e-05
sI619
F4.1222644327376656e-05
sI620
F4.136140756116902e-05
sI621
F4.135740588750991e-05
sI622
F4.1375222927797495e-05
sI623
F4.1840183321539826e-05
sI624
F4.2003762633413544e-05
sI625
F4.210431064421982e-05
sI626
F4.1622826980614036e-05
sI627
F4.167221008088973e-05
sI628
F4.1166848756546415e-05
sI629
F4.142624976566367e-05
sI630
F4.1047926472970175e-05
sI631
F4.1885419443943306e-05
sI632
F4.1566540261328555e-05
sI633
F4.1603230524600576e-05
sI634
F4.123900741248576e-05
sI635
F4.1195327121101855e-05
sI636
F4.1396743206689735e-05
sI637
F4.116752115734812e-05
sI638
F4.135523911230621e-05
sI639
F4.1259744071098226e-05
sI640
F4.120523516704111e-05
sI641
F4.131708060661765e-05
sI642
F4.1404429111935315e-05
sI643
F4.1604539553929953e-05
sI644
F4.1510689639423504e-05
sI645
F4.1468093684216e-05
sI646
F4.139845040285195e-05
sI647
F4.1087958251750933e-05
sI648
F4.1304546945397647e-05
sI649
F4.102833718633292e-05
sI650
F4.0700932025572456e-05
sI651
F4.137744296528467e-05
sI652
F4.1901307104907914e-05
sI653
F4.1408891732430675e-05
sI654
F4.0836278321521036e-05
sI655
F4.132332830053542e-05
sI656
F4.176467244931814e-05
sI657
F4.120566353194022e-05
sI658
F4.1542734626531796e-05
sI659
F4.113032361630076e-05
sI660
F4.167694408252487e-05
sI661
F4.14398791832582e-05
sI662
F4.1622878272917774e-05
sI663
F4.1103045617774114e-05
sI664
F4.188138347771542e-05
sI665
F4.140724016110653e-05
sI666
F4.133119507443439e-05
sI667
F4.131584843847236e-05
sI668
F4.1186440334683994e-05
sI669
F4.108550706050096e-05
sI670
F4.142469952128636e-05
sI671
F4.169415714017077e-05
sI672
F4.166517894077515e-05
sI673
F4.111455223210214e-05
sI674
F4.1349870802065425e-05
sI675
F4.1165031017698084e-05
sI676
F4.0929326694083557e-05
sI677
F4.0784177340214e-05
sI678
F4.111785565896753e-05
sI679
F4.174341046336849e-05
sI680
F4.165751509077609e-05
sI681
F4.03964221931119e-05
sI682
F4.124589812803947e-05
sI683
F4.087659491602835e-05
sI684
F4.12103237295014e-05
sI685
F4.239378830916962e-05
sI686
F4.1796397638904637e-05
sI687
F4.083641403695992e-05
sI688
F4.1306036195010165e-05
sI689
F4.077815514946792e-05
sI690
F4.143396638056629e-05
sI691
F4.079361994868691e-05
sI692
F4.0894423825932336e-05
sI693
F4.0643801618500675e-05
sI694
F4.079316424210333e-05
sI695
F4.0675272749979285e-05
sI696
F4.1774049073239894e-05
sI697
F4.121163557613272e-05
sI698
F4.2376777326325055e-05
sI699
F4.152867512274838e-05
sI700
F4.084252017477752e-05
sI701
F4.173994022949046e-05
sI702
F4.0170416347962146e-05
sI703
F4.0808042047757453e-05
sI704
F4.0375435837347595e-05
sI705
F4.086814164239172e-05
sI706
F4.146392722148562e-05
sI707
F4.224535572916466e-05
sI708
F4.144721171783772e-05
sI709
F4.153950553487107e-05
sI710
F4.119511357814076e-05
sI711
F4.063262498732456e-05
sI712
F4.044313047302239e-05
sI713
F4.120495431791937e-05
sI714
F4.109845011157631e-05
sI715
F4.096683541376933e-05
sI716
F4.1618151687572436e-05
sI717
F4.127883623539219e-05
sI718
F4.140984527722935e-05
sI719
F4.123222291241291e-05
sI720
F4.158291062594799e-05
sI721
F4.129049089485193e-05
sI722
F4.085709636925117e-05
sI723
F4.088513196975896e-05
sI724
F4.06207531149505e-05
sI725
F4.087461127255665e-05
sI726
F4.088649782474363e-05
sI727
F4.1281256784486686e-05
sI728
F4.195540349982707e-05
sI729
F4.21274837911767e-05
sI730
F4.1393164785574754e-05
sI731
F4.0470080396204366e-05
sI732
F4.046395654455637e-05
sI733
F4.0762944436778525e-05
sI734
F4.105063325354763e-05
sI735
F4.1313475222182205e-05
sI736
F4.102445249642983e-05
sI737
F4.104421399375724e-05
sI738
F4.162409841867998e-05
sI739
F4.072289931400519e-05
sI740
F4.139781722400926e-05
sI741
F4.110846638027965e-05
sI742
F4.3260666913624846e-05
sI743
F4.0836643794506244e-05
sI744
F4.155241059322634e-05
sI745
F4.058617940216891e-05
sI746
F4.1550185777339266e-05
sI747
F4.1428690497724574e-05
sI748
F4.210583430008796e-05
sI749
F4.195589562172586e-05
sI750
F4.095795901548627e-05
sI751
F4.1960445027910964e-05
sI752
F4.15118022836225e-05
sI753
F4.181722823659584e-05
sI754
F4.1246603402100845e-05
sI755
F4.112099265896063e-05
sI756
F4.1303570434081394e-05
sI757
F4.1354878447918964e-05
sI758
F4.0301393635644445e-05
sI759
F4.090942222489957e-05
sI760
F4.1055117105059935e-05
sI761
F4.11307652363746e-05
sI762
F4.092259864663106e-05
sI763
F4.070557745095016e-05
sI764
F4.0826142527095044e-05
sI765
F4.1088602362293614e-05
sI766
F4.110482746355615e-05
sI767
F4.126719671404544e-05
sI768
F4.059257224042767e-05
sI769
F4.1593937641692946e-05
sI770
F3.9885988009302764e-05
sI771
F4.111158073172305e-05
sI772
F4.1363290570473055e-05
sI773
F4.134001433442336e-05
sI774
F4.105337584903168e-05
sI775
F3.930483174485744e-05
sI776
F3.8062090204959986e-05
sI777
F4.063623481442846e-05
sI778
F4.1165031017698084e-05
sI779
F4.0929326694083557e-05
sI780
F4.0784177340214e-05
sI781
F4.111785565896753e-05
sI782
F4.174341046336849e-05
sI783
F4.165751509077609e-05
sI784
F4.03964221931119e-05
sI785
F4.124589812803947e-05
sI786
F4.087659491602835e-05
sI787
F4.12103237295014e-05
sI788
F4.239378830916962e-05
sI789
F4.1796397638904637e-05
sI790
F4.083641403695992e-05
sI791
F4.1306036195010165e-05
sI792
F4.077815514946792e-05
sI793
F4.143396638056629e-05
sI794
F4.079361994868691e-05
sI795
F4.0894423825932336e-05
sI796
F4.0643801618500675e-05
sI797
F4.079316424210333e-05
sI798
F4.0675272749979285e-05
sI799
F4.1774049073239894e-05
sI800
F4.121163557613272e-05
sI801
F4.2376777326325055e-05
sI802
F4.152867512274838e-05
sI803
F4.084252017477752e-05
sI804
F4.173994022949046e-05
sI805
F4.0170416347962146e-05
sI806
F4.0808042047757453e-05
sI807
F4.0375435837347595e-05
sI808
F4.086814164239172e-05
sI809
F4.146392722148562e-05
sI810
F4.224535572916466e-05
sI811
F4.144721171783772e-05
sI812
F4.153950553487107e-05
sI813
F4.119511357814076e-05
sI814
F4.063262498732456e-05
sI815
F4.044313047302239e-05
sI816
F4.120495431791937e-05
sI817
F4.109845011157631e-05
sI818
F4.096683541376933e-05
sI819
F4.1618151687572436e-05
sI820
F4.127883623539219e-05
sI821
F4.140984527722935e-05
sI822
F4.123222291241291e-05
sI823
F4.158291062594799e-05
sI824
F4.129049089485193e-05
sI825
F4.085709636925117e-05
sI826
F4.088513196975896e-05
sI827
F4.06207531149505e-05
sI828
F4.087461127255665e-05
sI829
F4.088649782474363e-05
sI830
F4.1281256784486686e-05
sI831
F4.195540349982707e-05
sI832
F4.21274837911767e-05
sI833
F4.1393164785574754e-05
sI834
F4.0470080396204366e-05
sI835
F4.046395654455637e-05
sI836
F4.0762944436778525e-05
sI837
F4.105063325354763e-05
sI838
F4.1313475222182205e-05
sI839
F4.102445249642983e-05
sI840
F4.104421399375724e-05
sI841
F4.162409841867998e-05
sI842
F4.072289931400519e-05
sI843
F4.139781722400926e-05
sI844
F4.110846638027965e-05
sI845
F4.3260666913624846e-05
sI846
F4.0836643794506244e-05
sI847
F4.155241059322634e-05
sI848
F4.058617940216891e-05
sI849
F4.1550185777339266e-05
sI850
F4.1428690497724574e-05
sI851
F4.210583430008796e-05
sI852
F4.195589562172586e-05
sI853
F4.095795901548627e-05
sI854
F4.1960445027910964e-05
sI855
F4.15118022836225e-05
sI856
F4.181722823659584e-05
sI857
F4.1246603402100845e-05
sI858
F4.112099265896063e-05
sI859
F4.1303570434081394e-05
sI860
F4.1354878447918964e-05
sI861
F4.0301393635644445e-05
sI862
F4.090942222489957e-05
sI863
F4.1055117105059935e-05
sI864
F4.11307652363746e-05
sI865
F4.092259864663106e-05
sI866
F4.070557745095016e-05
sI867
F4.0826142527095044e-05
sI868
F4.1088602362293614e-05
sI869
F4.110482746355615e-05
sI870
F4.126719671404544e-05
sI871
F4.059257224042767e-05
sI872
F4.1593937641692946e-05
sI873
F3.9885988009302764e-05
sI874
F4.111158073172305e-05
sI875
F4.1363290570473055e-05
sI876
F4.134001433442336e-05
sI877
F4.105337584903168e-05
sI878
F3.930483174485744e-05
sI879
F4.0976243877111074e-05
sI880
F4.126367012347032e-05
sI881
F4.1823761158354955e-05
sI-1
F100000.0
s.