(dp0
I0
F11962.229749679565
sI1
F11223.792351722717
sI2
F12764.542691230774
sI3
F11962.229749679565
sI4
F11223.792351722717
sI5
F12764.542691230774
sI6
F11962.229749679565
sI7
F11223.792351722717
sI8
F12764.542691230774
sI9
F11249.240782737732
sI10
F11239.310635566711
sI11
F11256.845916748047
sI12
F11250.897423744202
sI13
F11276.774079322815
sI14
F11242.933283805847
sI15
F11221.765276908875
sI16
F11233.519386291504
sI17
F11221.818327903748
sI18
F11267.616446495056
sI19
F11243.294447898865
sI20
F11221.20440196991
sI21
F11244.668858528137
sI22
F11227.582076072693
sI23
F11252.001449584961
sI24
F11251.731375694275
sI25
F11261.858258247375
sI26
F11243.869787216187
sI27
F11244.698196411133
sI28
F11253.113533973694
sI29
F11254.84314250946
sI30
F11250.090802192688
sI31
F11245.80449962616
sI32
F11266.455943107605
sI33
F11229.01148033142
sI34
F11253.656982421875
sI35
F11273.887712478638
sI36
F11229.487872123718
sI37
F11227.051218986511
sI38
F11315.494919776917
sI39
F11258.015794754028
sI40
F11256.480578422546
sI41
F11256.3570022583
sI42
F11255.80937385559
sI43
F11259.549629211426
sI44
F11246.35261631012
sI45
F11245.036451339722
sI46
F11259.58708190918
sI47
F11249.914450645447
sI48
F11244.136200904846
sI49
F11252.544989585876
sI50
F11245.411166191101
sI51
F11230.22612953186
sI52
F11250.22008895874
sI53
F11259.135069847107
sI54
F11243.6880941391
sI55
F11262.933798789978
sI56
F11262.661400794983
sI57
F11233.458018302917
sI58
F11243.92620754242
sI59
F11253.363954544067
sI60
F11255.555031776428
sI61
F11245.294919013977
sI62
F11251.573350906372
sI63
F11253.663589477539
sI64
F11250.768609046936
sI65
F11249.219625473022
sI66
F11248.763580322266
sI67
F11250.104552268982
sI68
F11246.47712135315
sI69
F11248.583926200867
sI70
F11245.596027374268
sI71
F11247.032173156738
sI72
F11250.118191719055
sI73
F11248.031671524048
sI74
F11250.014578819275
sI75
F11252.456567764282
sI76
F11248.124918937683
sI77
F11252.19905948639
sI78
F11253.019899368286
sI79
F11238.921782493591
sI80
F11242.871594429016
sI81
F11250.182686805725
sI82
F11242.117310523987
sI83
F11243.047910690308
sI84
F11243.490805625916
sI85
F11254.826364517212
sI86
F11235.91775894165
sI87
F11251.999243736267
sI88
F11253.049080848694
sI89
F11254.12614440918
sI90
F11252.653944015503
sI91
F11254.662711143494
sI92
F11250.575973510742
sI93
F11246.476671218872
sI94
F11252.760128974915
sI95
F11251.809532165527
sI96
F11243.253497123718
sI97
F11250.955289840698
sI98
F11246.883827209473
sI99
F11251.99555683136
sI100
F11247.258068084717
sI101
F11247.638511657715
sI102
F11253.358218193054
sI103
F11247.919484138489
sI104
F11253.769521713257
sI105
F11244.382634162903
sI106
F11259.108655929565
sI107
F11245.63379573822
sI108
F11249.696950912476
sI109
F11248.858925819397
sI110
F11346.72769832611
sI111
F11169.57873916626
sI112
F12676.063174247742
sI113
F12995.053860664368
sI114
F12846.986128807068
sI115
F12844.557500839233
sI116
F11148.905686378479
sI117
F11140.753819465637
sI118
F11153.647577285767
sI119
F11152.135847091675
sI120
F11147.217209815979
sI121
F11126.092136383057
sI122
F11179.610786437988
sI123
F11129.901794433594
sI124
F11160.979224205017
sI125
F11132.689274787903
sI126
F11159.91554737091
sI127
F11180.678464889526
sI128
F11117.20966053009
sI129
F11158.303762435913
sI130
F11136.724339485168
sI131
F11009.870884895325
sI132
F11296.01023197174
sI133
F11105.14429473877
sI134
F11181.798991203308
sI135
F11199.3994846344
sI136
F11086.894948005676
sI137
F11306.59609413147
sI138
F10987.643789291382
sI139
F11086.352450370789
sI140
F11194.455879211426
sI141
F11149.255731582642
sI142
F11153.503239631653
sI143
F11166.517397880554
sI144
F11107.346698760986
sI145
F11132.308577537537
sI146
F11166.585373878479
sI147
F11157.916105270386
sI148
F11148.180269241333
sI149
F11201.558126449585
sI150
F11123.787291526794
sI151
F11146.33219909668
sI152
F11149.740785598755
sI153
F11229.405376434326
sI154
F11028.50902748108
sI155
F11093.667932510376
sI156
F11128.047936439514
sI157
F12939.503451347351
sI158
F12987.293870925903
sI159
F12900.488609313965
sI160
F12942.831519126892
sI161
F12936.112134933472
sI162
F12943.608522415161
sI163
F12933.516062736511
sI164
F12948.373084068298
sI165
F12933.597387313843
sI166
F12924.746389389038
sI167
F12960.658372879028
sI168
F12853.1091299057
sI169
F12993.252692222595
sI170
F12955.317497253418
sI171
F12918.109829902649
sI172
F12918.771045684814
sI173
F12946.886591911316
sI174
F12845.725212097168
sI175
F13046.30304813385
sI176
F12942.234364509583
sI177
F12936.393325805664
sI178
F13108.913648605347
sI179
F12659.148752212524
sI180
F12828.64199256897
sI181
F13011.652837753296
sI182
F12871.08693599701
sI183
F12972.609979629517
sI184
F12895.216129302979
sI185
F12985.913172721863
sI186
F12844.4035987854
sI187
F13101.619633674622
sI188
F12914.79409980774
sI189
F12949.544849395752
sI190
F12963.1307888031
sI191
F12925.279767990112
sI192
F12974.79658126831
sI193
F12921.186627388
sI194
F12998.736931800842
sI195
F12895.378698348999
sI196
F12946.758674621582
sI197
F12937.800782203674
sI198
F12939.503451347351
sI199
F12980.631224632263
sI200
F12965.235612869263
sI201
F12951.346711158752
sI202
F12929.2427816391
sI203
F12919.144812583923
sI204
F12910.067748069763
sI205
F12975.961986541748
sI206
F13026.68556880951
sI207
F12925.914142608643
sI208
F12945.554896354675
sI209
F12998.487241744995
sI210
F12984.273568153381
sI211
F12969.024702072144
sI212
F12975.128056526184
sI213
F12977.162996292114
sI214
F12964.757935523987
sI215
F12984.1108045578
sI216
F12973.989029884338
sI217
F12977.664130210876
sI218
F12888.249053001404
sI219
F13029.082752227783
sI220
F12992.535318374634
sI221
F12933.81209564209
sI222
F12752.81185054779
sI223
F13176.047194480896
sI224
F12939.46198272705
sI225
F13021.85167503357
sI226
F12939.25908946991
sI227
F12991.933329582214
sI228
F12924.612177848816
sI229
F13000.398736953735
sI230
F13136.62275505066
sI231
F12842.044878005981
sI232
F12940.803881645203
sI233
F13033.735131263733
sI234
F12953.986672401428
sI235
F13011.316666603088
sI236
F12955.31315612793
sI237
F12984.000260353088
sI238
F12958.076572418213
sI239
F13009.062650680542
sI240
F12936.24061012268
sI241
F13017.969188690186
sI242
F12916.173978805542
sI243
F13005.499695777893
sI244
F12971.419054031372
sI245
F12994.196570396423
sI246
F12975.961986541748
sI247
F13017.706652641296
sI248
F13001.597167015076
sI249
F12987.243460655212
sI250
F12964.735468864441
sI251
F12955.193157196045
sI252
F12948.15495967865
sI253
F12764.80687904358
sI254
F12769.826782226562
sI255
F12759.389100074768
sI256
F12775.344539642334
sI257
F12757.27718925476
sI258
F12831.312914848328
sI259
F12700.771522521973
sI260
F12730.578919410706
sI261
F12807.400582313538
sI262
F12776.709485054016
sI263
F12749.83911037445
sI264
F12773.00170135498
sI265
F12748.243062973022
sI266
F12763.682987213135
sI267
F12766.154264450073
sI268
F12755.051753044128
sI269
F12771.404182434082
sI270
F12725.673787117004
sI271
F12808.97770023346
sI272
F12758.759972572327
sI273
F12769.485516548157
sI274
F12737.079917907715
sI275
F12794.221995353699
sI276
F12715.54462814331
sI277
F12813.367467880249
sI278
F12767.096848487854
sI279
F12761.161924362183
sI280
F12765.485445022583
sI281
F12760.444302558899
sI282
F12674.029660224915
sI283
F12875.597332954407
sI284
F12533.255780220032
sI285
F12946.142589569092
sI286
F12788.7699136734
sI287
F12733.387561798096
sI288
F12793.74545955658
sI289
F12699.306699752808
sI290
F12766.60268497467
sI291
F12762.70580291748
sI292
F12725.491149902344
sI293
F12803.261812210083
sI294
F12648.6760263443
sI295
F12904.410895347595
sI296
F12840.017091751099
sI297
F12732.139048576355
sI298
F12749.21190738678
sI299
F12805.607752799988
sI300
F12809.167461395264
sI301
F12707.248086929321
sI302
F12769.691591262817
sI303
F12762.768514633179
sI304
F12914.538950920105
sI305
F12920.227143287659
sI306
F12908.083508491516
sI307
F12925.852400779724
sI308
F12906.650122642517
sI309
F12984.160378456116
sI310
F12849.8576669693
sI311
F12875.565094947815
sI312
F12958.37847328186
sI313
F12925.285926818848
sI314
F12903.680570602417
sI315
F12923.415476799011
sI316
F12894.764269828796
sI317
F12911.618048667908
sI318
F12919.630904197693
sI319
F12902.200779914856
sI320
F12921.448907852173
sI321
F12868.741928100586
sI322
F12968.242303848267
sI323
F12919.205883026123
sI324
F12910.403541564941
sI325
F12887.246603012085
sI326
F12950.200427055359
sI327
F12843.150344848633
sI328
F12961.526263237
sI329
F12969.887392044067
sI330
F12859.54960823059
sI331
F12916.06097316742
sI332
F12911.69888305664
sI333
F12845.620295524597
sI334
F12999.516138076782
sI335
F12745.832712173462
sI336
F13109.855931282043
sI337
F12984.251482963562
sI338
F12847.724036216736
sI339
F12942.89658164978
sI340
F12844.299772262573
sI341
F12921.708424568176
sI342
F12908.08786201477
sI343
F12876.198251724243
sI344
F12958.155735969543
sI345
F12798.50074672699
sI346
F13046.553168296814
sI347
F13002.18842792511
sI348
F12871.840942382812
sI349
F12894.29453086853
sI350
F12964.976412773132
sI351
F12973.00472164154
sI352
F12848.520219802856
sI353
F12928.509256362915
sI354
F12908.257848739624
sI355
F12764.80687904358
sI356
F12999.279490470886
sI357
F12914.538950920105
sI358
F12843.861270904541
sI359
F12708.196600914001
sI360
F12769.141353607178
sI361
F12789.410008430481
sI362
F12791.981912612915
sI363
F12792.073586463928
sI364
F12789.010252952576
sI365
F12780.999156951904
sI366
F12761.380488395691
sI367
F12748.523772239685
sI368
F12733.691019058228
sI369
F12769.141353607178
sI370
F12794.346287727356
sI371
F12781.012487411499
sI372
F12759.473832130432
sI373
F12753.26093673706
sI374
F12976.882362365723
sI375
F12971.087103843689
sI376
F12984.764496803284
sI377
F13018.801008224487
sI378
F12935.216589927673
sI379
F13012.338809967041
sI380
F12962.538358688354
sI381
F12972.19249343872
sI382
F12981.66714477539
sI383
F12986.784826278687
sI384
F12967.488203048706
sI385
F12945.79189491272
sI386
F12990.431902885437
sI387
F12974.420300483704
sI388
F12979.786499977112
sI389
F12975.029935836792
sI390
F12978.940650939941
sI391
F12968.522953987122
sI392
F12981.674628257751
sI393
F12977.183415412903
sI394
F12976.317009925842
sI395
F12964.863376617432
sI396
F12985.247687339783
sI397
F13062.168138504028
sI398
F12896.404915809631
sI399
F13004.704762458801
sI400
F12906.525561332703
sI401
F12970.703421592712
sI402
F12970.48883342743
sI403
F13049.41886806488
sI404
F12804.264908790588
sI405
F12896.01386642456
sI406
F13147.985167503357
sI407
F13006.990223884583
sI408
F12918.427255630493
sI409
F12859.372696876526
sI410
F13029.47970867157
sI411
F12970.881088256836
sI412
F12980.956659317017
sI413
F12919.185846328735
sI414
F13021.471507072449
sI415
F13050.293147087097
sI416
F12864.92690372467
sI417
F12990.137095451355
sI418
F12901.60238647461
sI419
F12882.305495262146
sI420
F13035.264251708984
sI421
F13019.094669342041
sI422
F12957.318049430847
sI423
F12972.906764030457
sI424
F12967.629915237427
sI425
F12976.882362365723
sI426
F13024.309673309326
sI427
F12954.640322685242
sI428
F12990.015348434448
sI429
F13078.92447090149
sI430
F13063.28601360321
sI431
F13045.931276321411
sI432
F13029.886295318604
sI433
F13009.774297714233
sI434
F12963.974910736084
sI435
F12933.141520500183
sI436
F12909.854645729065
sI437
F12990.015348434448
sI438
F13010.70878791809
sI439
F12999.767023086548
sI440
F12981.207695007324
sI441
F12974.013752937317
sI442
F13017.984607696533
sI443
F13036.450604438782
sI444
F13119.63152217865
sI445
F12907.58733177185
sI446
F13047.124314308167
sI447
F12925.967252731323
sI448
F13085.759942054749
sI449
F13093.049710273743
sI450
F13009.465991973877
sI451
F13050.31029701233
sI452
F13008.200228691101
sI453
F12920.894881248474
sI454
F13066.047348022461
sI455
F12941.90041065216
sI456
F13003.86787891388
sI457
F13153.800792694092
sI458
F13078.181629180908
sI459
F13152.100358963013
sI460
F12969.922917366028
sI461
F13063.787026405334
sI462
F12956.085545539856
sI463
F13034.362833976746
sI464
F13026.805856704712
sI465
F12974.199171066284
sI466
F13013.369894981384
sI467
F13017.07361125946
sI468
F13059.206608772278
sI469
F12959.044667243958
sI470
F13004.959636688232
sI471
F13008.542274475098
sI472
F13039.511345863342
sI473
F11962.229749679565
sI474
F12043.08872795105
sI475
F11835.523038864136
sI476
F12012.204778671265
sI477
F12079.525749206543
sI478
F11936.820600509644
sI479
F12260.542287826538
sI480
F11850.818857192993
sI481
F11812.110312461853
sI482
F11964.084151268005
sI483
F12302.579590797424
sI484
F12017.704093933105
sI485
F12053.910130500793
sI486
F11852.211562156677
sI487
F11927.27066230774
sI488
F11770.235605239868
sI489
F11987.178813934326
sI490
F12103.347160339355
sI491
F11882.07116985321
sI492
F11697.094188690186
sI493
F11797.206629753113
sI494
F11793.186714172363
sI495
F11657.97572517395
sI496
F11716.201511383057
sI497
F11920.453803062439
sI498
F11800.347794532776
sI499
F11856.948711395264
sI500
F11944.72814655304
sI501
F11908.164135932922
sI502
F12070.003336906433
sI503
F12099.817257881165
sI504
F12041.869376182556
sI505
F12008.730736732483
sI506
F11854.367220878601
sI507
F12091.074162483215
sI508
F11965.481538772583
sI509
F11960.618332862854
sI510
F11831.10715007782
sI511
F12015.368960380554
sI512
F12007.141299247742
sI513
F11986.495604515076
sI514
F12014.087526321411
sI515
F12087.434613227844
sI516
F12061.517806053162
sI517
F12063.408140182495
sI518
F11946.241664886475
sI519
F12025.445177078247
sI520
F11926.194241523743
sI521
F11959.503896713257
sI522
F11943.196380615234
sI523
F12077.432932853699
sI524
F11986.773329734802
sI525
F11869.922220230103
sI526
F11985.534012794495
sI527
F11895.551409721375
sI528
F11828.776156425476
sI529
F11979.453859329224
sI530
F11829.315915107727
sI531
F12015.878544807434
sI532
F11964.137530326843
sI533
F11928.240693092346
sI534
F11948.176347732544
sI535
F11970.341522216797
sI536
F11790.734910011292
sI537
F12020.463111877441
sI538
F11817.88310623169
sI539
F12056.209128379822
sI540
F11797.743101119995
sI541
F11937.919770240784
sI542
F11918.859877586365
sI543
F11979.129706382751
sI544
F11981.571063995361
sI545
F11835.931805610657
sI546
F11975.2837972641
sI547
F11917.125002861023
sI548
F12053.183765411377
sI549
F12117.717144966125
sI550
F11943.922367095947
sI551
F11879.903504371643
sI552
F11908.909193992615
sI553
F12204.840538978577
sI554
F11943.794737815857
sI555
F11987.178813934326
sI556
F12033.538798332214
sI557
F11882.961896896362
sI558
F11986.28731250763
sI559
F12104.834888458252
sI560
F11975.022158622742
sI561
F12166.415803909302
sI562
F12279.23847579956
sI563
F12066.903223991394
sI564
F11911.998043060303
sI565
F12070.853590965271
sI566
F11996.399995803833
sI567
F11970.265456199646
sI568
F11970.497405052185
sI569
F11837.82691001892
sI570
F12236.01516342163
sI571
F11998.513877868652
sI572
F11776.149863243103
sI573
F11844.704670906067
sI574
F12336.697052001953
sI575
F12377.90112876892
sI576
F12755.132703781128
sI577
F12314.109780311584
sI578
F12554.264471054077
sI579
F12482.224766731262
sI580
F12514.180655479431
sI581
F12493.261348724365
sI582
F12495.590239524841
sI583
F12345.420669555664
sI584
F12284.815770149231
sI585
F12329.979507446289
sI586
F12386.833329200745
sI587
F12406.480359077454
sI588
F12351.36387348175
sI589
F12351.956009864807
sI590
F12618.437384605408
sI591
F12208.878625869751
sI592
F12319.395789146423
sI593
F12569.908150672913
sI594
F12428.783108711243
sI595
F12573.932900428772
sI596
F12186.793429374695
sI597
F12317.150117874146
sI598
F12593.500569343567
sI599
F12166.491320610046
sI600
F12181.972449302673
sI601
F12402.827898979187
sI602
F12212.992942810059
sI603
F12381.588785171509
sI604
F12440.155287742615
sI605
F12384.1216173172
sI606
F12067.95696926117
sI607
F12275.05276298523
sI608
F12238.539233207703
sI609
F12098.726959228516
sI610
F12281.52846622467
sI611
F12435.3824634552
sI612
F12344.43307685852
sI613
F12384.379983901978
sI614
F12388.392105102539
sI615
F12605.019585609436
sI616
F12411.949698448181
sI617
F12451.574558258057
sI618
F12182.639651298523
sI619
F12356.69172000885
sI620
F12433.069646835327
sI621
F12386.833329200745
sI622
F12419.609725952148
sI623
F12158.971324920654
sI624
F12123.228583335876
sI625
F12117.98846912384
sI626
F12146.9846534729
sI627
F12202.52444934845
sI628
F12332.86246395111
sI629
F12295.009159088135
sI630
F12450.813388824463
sI631
F12083.619458198547
sI632
F12288.376832962036
sI633
F12169.213775634766
sI634
F12228.595031738281
sI635
F12418.346484184265
sI636
F12398.785970687866
sI637
F12210.817556381226
sI638
F12280.817524909973
sI639
F12349.530819892883
sI640
F12430.908168792725
sI641
F12256.24640750885
sI642
F12230.691544532776
sI643
F12094.434796333313
sI644
F12327.021730422974
sI645
F12340.646098136902
sI646
F12230.810235023499
sI647
F12413.921883583069
sI648
F12350.576919555664
sI649
F12309.710273742676
sI650
F12524.164005279541
sI651
F12296.758684158325
sI652
F12189.774381637573
sI653
F12317.69537639618
sI654
F12387.851075172424
sI655
F12268.81751537323
sI656
F12334.237836837769
sI657
F12358.336396217346
sI658
F12293.556982040405
sI659
F12507.90306186676
sI660
F12253.449971199036
sI661
F12318.77076625824
sI662
F12371.986601829529
sI663
F12352.195408821106
sI664
F12302.549619674683
sI665
F12337.48665714264
sI666
F12423.450127601624
sI667
F12396.850810050964
sI668
F12378.46699810028
sI669
F12411.164876937866
sI670
F12205.85262298584
sI671
F12096.22819519043
sI672
F12352.546760559082
sI673
F12310.015829086304
sI674
F12222.988124847412
sI675
F13321.674286842346
sI676
F13510.845621109009
sI677
F13527.26249217987
sI678
F13312.335041999817
sI679
F13068.55207157135
sI680
F13386.122484207153
sI681
F13535.454397201538
sI682
F13294.816648483276
sI683
F13517.417077064514
sI684
F13266.118593215942
sI685
F13072.888026237488
sI686
F12816.640590667725
sI687
F13444.986000061035
sI688
F13548.563214302063
sI689
F13163.071537017822
sI690
F13636.502449989319
sI691
F13499.864694595337
sI692
F13852.42491054535
sI693
F13657.186868667603
sI694
F13346.100570678711
sI695
F13622.133682250977
sI696
F13186.113004684448
sI697
F12919.364091873169
sI698
F13643.862895011902
sI699
F12969.236316680908
sI700
F13318.250793457031
sI701
F13183.360531806946
sI702
F13701.85774898529
sI703
F13467.91410446167
sI704
F13627.449356079102
sI705
F13409.152513504028
sI706
F13078.026028633118
sI707
F12833.661417007446
sI708
F13157.49735736847
sI709
F12927.460018157959
sI710
F13299.111614227295
sI711
F13379.341144561768
sI712
F13669.150730133057
sI713
F13334.578614234924
sI714
F13153.259302139282
sI715
F13168.873613357544
sI716
F13225.843935012817
sI717
F13249.655015945435
sI718
F13007.059001922607
sI719
F13215.23320388794
sI720
F13104.856338500977
sI721
F13115.148149490356
sI722
F13458.775259971619
sI723
F13434.71824169159
sI724
F13487.805668830872
sI725
F13278.812165260315
sI726
F13212.259418487549
sI727
F13219.196378707886
sI728
F13242.802075386047
sI729
F13450.599108695984
sI730
F13143.395047187805
sI731
F13543.880470275879
sI732
F13486.188117027283
sI733
F13235.179256439209
sI734
F13563.7328748703
sI735
F13232.535416603088
sI736
F13329.652647018433
sI737
F13343.214609146118
sI738
F13223.91116809845
sI739
F13592.005639076233
sI740
F12807.358994483948
sI741
F13204.159889221191
sI742
F13901.604813575745
sI743
F13042.114320755005
sI744
F13057.492639541626
sI745
F13305.68503665924
sI746
F13056.530835151672
sI747
F13288.0504322052
sI748
F13089.970672607422
sI749
F13433.744181632996
sI750
F13392.697170257568
sI751
F12771.25272846222
sI752
F13041.342477798462
sI753
F13538.642875671387
sI754
F13290.61466884613
sI755
F13244.929960250854
sI756
F12946.773991584778
sI757
F13130.242580413818
sI758
F13721.337394714355
sI759
F13326.29667186737
sI760
F13412.084033966064
sI761
F13431.628784179688
sI762
F13285.284371376038
sI763
F13409.002432823181
sI764
F13735.872835159302
sI765
F13196.958556175232
sI766
F13302.636779785156
sI767
F13209.481271743774
sI768
F13547.869611740112
sI769
F13391.25111579895
sI770
F13736.744554519653
sI771
F13132.819502830505
sI772
F13384.7408285141
sI773
F13077.547845840454
sI774
F13655.18023109436
sI775
F13768.648801803589
sI776
F13572.79691696167
sI777
F11527.659355163574
sI778
F13321.674286842346
sI779
F13510.845621109009
sI780
F13527.26249217987
sI781
F13312.335041999817
sI782
F13068.55207157135
sI783
F13386.122484207153
sI784
F13535.454397201538
sI785
F13294.816648483276
sI786
F13517.417077064514
sI787
F13266.118593215942
sI788
F13072.888026237488
sI789
F12816.640590667725
sI790
F13444.986000061035
sI791
F13548.563214302063
sI792
F13163.071537017822
sI793
F13636.502449989319
sI794
F13499.864694595337
sI795
F13852.42491054535
sI796
F13657.186868667603
sI797
F13346.100570678711
sI798
F13622.133682250977
sI799
F13186.113004684448
sI800
F12919.364091873169
sI801
F13643.862895011902
sI802
F12969.236316680908
sI803
F13318.250793457031
sI804
F13183.360531806946
sI805
F13701.85774898529
sI806
F13467.91410446167
sI807
F13627.449356079102
sI808
F13409.152513504028
sI809
F13078.026028633118
sI810
F12833.661417007446
sI811
F13157.49735736847
sI812
F12927.460018157959
sI813
F13299.111614227295
sI814
F13379.341144561768
sI815
F13669.150730133057
sI816
F13334.578614234924
sI817
F13153.259302139282
sI818
F13168.873613357544
sI819
F13225.843935012817
sI820
F13249.655015945435
sI821
F13007.059001922607
sI822
F13215.23320388794
sI823
F13104.856338500977
sI824
F13115.148149490356
sI825
F13458.775259971619
sI826
F13434.71824169159
sI827
F13487.805668830872
sI828
F13278.812165260315
sI829
F13212.259418487549
sI830
F13219.196378707886
sI831
F13242.802075386047
sI832
F13450.599108695984
sI833
F13143.395047187805
sI834
F13543.880470275879
sI835
F13486.188117027283
sI836
F13235.179256439209
sI837
F13563.7328748703
sI838
F13232.535416603088
sI839
F13329.652647018433
sI840
F13343.214609146118
sI841
F13223.91116809845
sI842
F13592.005639076233
sI843
F12807.358994483948
sI844
F13204.159889221191
sI845
F13901.604813575745
sI846
F13042.114320755005
sI847
F13057.492639541626
sI848
F13305.68503665924
sI849
F13056.530835151672
sI850
F13288.0504322052
sI851
F13089.970672607422
sI852
F13433.744181632996
sI853
F13392.697170257568
sI854
F12771.25272846222
sI855
F13041.342477798462
sI856
F13538.642875671387
sI857
F13290.61466884613
sI858
F13244.929960250854
sI859
F12946.773991584778
sI860
F13130.242580413818
sI861
F13721.337394714355
sI862
F13326.29667186737
sI863
F13412.084033966064
sI864
F13431.628784179688
sI865
F13285.284371376038
sI866
F13409.002432823181
sI867
F13735.872835159302
sI868
F13196.958556175232
sI869
F13302.636779785156
sI870
F13209.481271743774
sI871
F13547.869611740112
sI872
F13391.25111579895
sI873
F13736.744554519653
sI874
F13132.819502830505
sI875
F13384.7408285141
sI876
F13077.547845840454
sI877
F13655.18023109436
sI878
F13768.648801803589
sI879
F13390.626935958862
sI880
F13252.66839504242
sI881
F13081.14748096466
sI-1
F97992.0
s.