(dp0
I0
F1.4745284298012251e-06
sI1
F1.3386578825436146e-06
sI2
F1.6380677184679726e-06
sI3
F1.4745284298012251e-06
sI4
F1.3386578825436146e-06
sI5
F1.6380677184679726e-06
sI6
F1.4745284298012251e-06
sI7
F1.3386578825436146e-06
sI8
F1.6380677184679726e-06
sI9
F1.4158508127026792e-06
sI10
F1.4152313002613326e-06
sI11
F1.4165428846579786e-06
sI12
F1.416681769783601e-06
sI13
F1.4133175005870413e-06
sI14
F1.4159261050306071e-06
sI15
F1.4174324450832998e-06
sI16
F1.4157225682875918e-06
sI17
F1.4155110376057323e-06
sI18
F1.4147023491561939e-06
sI19
F1.4169221266291387e-06
sI20
F1.4141941573342365e-06
sI21
F1.4132552452750247e-06
sI22
F1.4138233467297923e-06
sI23
F1.4141128460432029e-06
sI24
F1.416511444918278e-06
sI25
F1.4162295177699846e-06
sI26
F1.4162092777381119e-06
sI27
F1.414570212632249e-06
sI28
F1.4135890699096265e-06
sI29
F1.4136909392004071e-06
sI30
F1.4152649600029932e-06
sI31
F1.415575577867756e-06
sI32
F1.4131430097208408e-06
sI33
F1.4175375456781936e-06
sI34
F1.4142650511805854e-06
sI35
F1.414793474041609e-06
sI36
F1.4181661133205736e-06
sI37
F1.4186135375293674e-06
sI38
F1.4102884839939378e-06
sI39
F1.4132682124579077e-06
sI40
F1.4159804841984425e-06
sI41
F1.4177502414280951e-06
sI42
F1.4130342063101153e-06
sI43
F1.4151002858397987e-06
sI44
F1.4152575661396938e-06
sI45
F1.4159736486663022e-06
sI46
F1.4129007649410497e-06
sI47
F1.4167989729196862e-06
sI48
F1.4165766891727216e-06
sI49
F1.4156099555906465e-06
sI50
F1.4164145420991758e-06
sI51
F1.4189047489177042e-06
sI52
F1.415406178706391e-06
sI53
F1.414216561079762e-06
sI54
F1.4170006266134294e-06
sI55
F1.4131284964413737e-06
sI56
F1.4130932387557138e-06
sI57
F1.416756775451944e-06
sI58
F1.4156184582336806e-06
sI59
F1.4147484507232022e-06
sI60
F1.4146197891973245e-06
sI61
F1.4162410659768199e-06
sI62
F1.4158989051216153e-06
sI63
F1.4151309425392e-06
sI64
F1.4148193844265577e-06
sI65
F1.4153386690418657e-06
sI66
F1.4159627551579845e-06
sI67
F1.416954487187816e-06
sI68
F1.417072945653075e-06
sI69
F1.4168580255713437e-06
sI70
F1.4163963305557914e-06
sI71
F1.4162938991590934e-06
sI72
F1.4155659650016972e-06
sI73
F1.4160045828104373e-06
sI74
F1.416314343583025e-06
sI75
F1.4156203316240124e-06
sI76
F1.416848603996712e-06
sI77
F1.4159979101480147e-06
sI78
F1.4157664650626955e-06
sI79
F1.4175695270957078e-06
sI80
F1.4170217920161932e-06
sI81
F1.4156111559637807e-06
sI82
F1.4167986265301025e-06
sI83
F1.4170523517931244e-06
sI84
F1.4169771923588925e-06
sI85
F1.4150251671507519e-06
sI86
F1.4178644541784635e-06
sI87
F1.4148268151492616e-06
sI88
F1.4151981447829698e-06
sI89
F1.414448096093146e-06
sI90
F1.4155726005826708e-06
sI91
F1.4154789577114357e-06
sI92
F1.4152616243379157e-06
sI93
F1.416491682282306e-06
sI94
F1.4142971477282273e-06
sI95
F1.414943396560453e-06
sI96
F1.4176544754773701e-06
sI97
F1.4158137369157942e-06
sI98
F1.416823560806968e-06
sI99
F1.4148812544911848e-06
sI100
F1.4172801232614773e-06
sI101
F1.4164432234897717e-06
sI102
F1.4142309573417222e-06
sI103
F1.4163570595249197e-06
sI104
F1.4146971550887955e-06
sI105
F1.4167929399677703e-06
sI106
F1.4152840409620282e-06
sI107
F1.414998117343913e-06
sI108
F1.4162745832768664e-06
sI109
F1.4159482453202088e-06
sI110
F1.4075147813930045e-06
sI111
F1.423215891138696e-06
sI112
F1.416455112313031e-06
sI113
F1.390260511380248e-06
sI114
F1.3976991982689313e-06
sI115
F1.3695955670689486e-06
sI116
F1.3324123008251476e-06
sI117
F1.339373445707892e-06
sI118
F1.3283796269636383e-06
sI119
F1.332519884100769e-06
sI120
F1.3323463270431546e-06
sI121
F1.333159041827514e-06
sI122
F1.3313973453721317e-06
sI123
F1.3364259342507623e-06
sI124
F1.329835868979501e-06
sI125
F1.345203323066535e-06
sI126
F1.3236746986278192e-06
sI127
F1.3271337770959235e-06
sI128
F1.3376971290668394e-06
sI129
F1.3430303280603795e-06
sI130
F1.3219155625687762e-06
sI131
F1.3284841888783205e-06
sI132
F1.3362409639894324e-06
sI133
F1.3307966443276698e-06
sI134
F1.3333710482399397e-06
sI135
F1.3301366379447899e-06
sI136
F1.3352195432636549e-06
sI137
F1.324658228440967e-06
sI138
F1.341041991009817e-06
sI139
F1.3340927249583245e-06
sI140
F1.331341868193725e-06
sI141
F1.3315568911931308e-06
sI142
F1.3341967715074787e-06
sI143
F1.3313893459931947e-06
sI144
F1.3315614881825866e-06
sI145
F1.3318078027069191e-06
sI146
F1.3312680913202257e-06
sI147
F1.3285125624040717e-06
sI148
F1.332775007911735e-06
sI149
F1.3235622340346254e-06
sI150
F1.3367071518555207e-06
sI151
F1.3305863492130143e-06
sI152
F1.3334527162456311e-06
sI153
F1.3353691589168548e-06
sI154
F1.3282487640875473e-06
sI155
F1.3339904891829235e-06
sI156
F1.3284732021112688e-06
sI157
F1.393295952500928e-06
sI158
F1.3955343725058356e-06
sI159
F1.3915035755873717e-06
sI160
F1.3902618183347926e-06
sI161
F1.3966442714563598e-06
sI162
F1.3911437809488447e-06
sI163
F1.3964885621220446e-06
sI164
F1.391930447902645e-06
sI165
F1.3941955580021315e-06
sI166
F1.395873342469045e-06
sI167
F1.389634807225093e-06
sI168
F1.4179357077370724e-06
sI169
F1.3782542481743931e-06
sI170
F1.383801618959346e-06
sI171
F1.4062892033095409e-06
sI172
F1.4001530576068788e-06
sI173
F1.3907853222416833e-06
sI174
F1.3921528131399796e-06
sI175
F1.394752818240086e-06
sI176
F1.3962350071672347e-06
sI177
F1.3900380974041227e-06
sI178
F1.3812578688598975e-06
sI179
F1.4166568003126656e-06
sI180
F1.4004930047883946e-06
sI181
F1.389096712545168e-06
sI182
F1.3958601824404226e-06
sI183
F1.3923407804483645e-06
sI184
F1.3902214051064732e-06
sI185
F1.3888291517938356e-06
sI186
F1.399791100697989e-06
sI187
F1.3795029012442228e-06
sI188
F1.3953514025333291e-06
sI189
F1.392457285143145e-06
sI190
F1.3868555739371402e-06
sI191
F1.3971554168046296e-06
sI192
F1.392347212303413e-06
sI193
F1.3943901570057093e-06
sI194
F1.3908996641109894e-06
sI195
F1.399665072732148e-06
sI196
F1.3919473095258539e-06
sI197
F1.3939660387096708e-06
sI198
F1.393295952500928e-06
sI199
F1.395757216360316e-06
sI200
F1.3948677589636915e-06
sI201
F1.3940732022099667e-06
sI202
F1.3925056410180048e-06
sI203
F1.3919858905531157e-06
sI204
F1.3913587606495526e-06
sI205
F1.405437910939611e-06
sI206
F1.4090286734047552e-06
sI207
F1.4018732956699864e-06
sI208
F1.4135050834251928e-06
sI209
F1.3994557143126585e-06
sI210
F1.4040239576518232e-06
sI211
F1.4065768187965233e-06
sI212
F1.4040813736126978e-06
sI213
F1.4074476598624486e-06
sI214
F1.4083279916698999e-06
sI215
F1.4033588028317112e-06
sI216
F1.413215691248304e-06
sI217
F1.3993725415106795e-06
sI218
F1.4296006598524258e-06
sI219
F1.3910283103157894e-06
sI220
F1.400286078534485e-06
sI221
F1.418530478747293e-06
sI222
F1.4228948033156996e-06
sI223
F1.3928568776133687e-06
sI224
F1.4060540485250073e-06
sI225
F1.4036885627177753e-06
sI226
F1.4091275906125134e-06
sI227
F1.4039749345329255e-06
sI228
F1.4044218519249085e-06
sI229
F1.4058507730174696e-06
sI230
F1.3962414098234177e-06
sI231
F1.4117132164370716e-06
sI232
F1.4066143824154054e-06
sI233
F1.395723320807285e-06
sI234
F1.4080828600882e-06
sI235
F1.4055832299186832e-06
sI236
F1.4036813493767397e-06
sI237
F1.4057306430004246e-06
sI238
F1.4089195234934238e-06
sI239
F1.4000432886351888e-06
sI240
F1.4093619721267103e-06
sI241
F1.402406661354938e-06
sI242
F1.4060436357432593e-06
sI243
F1.4067700557784946e-06
sI244
F1.4051766236145014e-06
sI245
F1.4056627444247738e-06
sI246
F1.405437910939611e-06
sI247
F1.4073802043768069e-06
sI248
F1.406537169068578e-06
sI249
F1.4058464867794385e-06
sI250
F1.404551545847177e-06
sI251
F1.4040687058569645e-06
sI252
F1.403521942111574e-06
sI253
F1.4297399878460126e-06
sI254
F1.427908647655407e-06
sI255
F1.4317049171763685e-06
sI256
F1.430452862605236e-06
sI257
F1.4292240139157641e-06
sI258
F1.430643269850762e-06
sI259
F1.4288670422413219e-06
sI260
F1.4344598223692273e-06
sI261
F1.4239201975296822e-06
sI262
F1.42305360228967e-06
sI263
F1.4380843214034655e-06
sI264
F1.4234219065656362e-06
sI265
F1.4424084356923217e-06
sI266
F1.4318449589323379e-06
sI267
F1.4268168642139756e-06
sI268
F1.4371565184578827e-06
sI269
F1.4246526442995844e-06
sI270
F1.4409907235224395e-06
sI271
F1.4171079905089812e-06
sI272
F1.4360069879870707e-06
sI273
F1.4249472469751723e-06
sI274
F1.4315165108857997e-06
sI275
F1.4276199595819605e-06
sI276
F1.4355260979925788e-06
sI277
F1.4233023339915718e-06
sI278
F1.4212515858647023e-06
sI279
F1.4400451893159527e-06
sI280
F1.4211212421288977e-06
sI281
F1.4273174038237357e-06
sI282
F1.4303282881433788e-06
sI283
F1.4290282774886975e-06
sI284
F1.4485080145343332e-06
sI285
F1.4164268591354556e-06
sI286
F1.4247140577294815e-06
sI287
F1.4365872178512262e-06
sI288
F1.4274664300595319e-06
sI289
F1.4301866361199345e-06
sI290
F1.4267246494226171e-06
sI291
F1.4291681759148744e-06
sI292
F1.4381789545936385e-06
sI293
F1.4220261398412148e-06
sI294
F1.440639065375393e-06
sI295
F1.4148461756624542e-06
sI296
F1.4094732746494643e-06
sI297
F1.4330249290539498e-06
sI298
F1.4332126129223965e-06
sI299
F1.4234717254923979e-06
sI300
F1.4283893784439172e-06
sI301
F1.4330232579462532e-06
sI302
F1.4312659348814094e-06
sI303
F1.4288076856106002e-06
sI304
F1.4197175569607978e-06
sI305
F1.4177749971810982e-06
sI306
F1.421800116752081e-06
sI307
F1.4204180739385563e-06
sI308
F1.4192450303873727e-06
sI309
F1.4207329496196408e-06
sI310
F1.4187898117468123e-06
sI311
F1.4245455557393427e-06
sI312
F1.4143465197902216e-06
sI313
F1.4137152475335313e-06
sI314
F1.4256038916027336e-06
sI315
F1.4135979292673184e-06
sI316
F1.4330517762450867e-06
sI317
F1.423236029585162e-06
sI318
F1.413465611554976e-06
sI319
F1.4275996272905545e-06
sI320
F1.415279174410422e-06
sI321
F1.4336226058508927e-06
sI322
F1.4034812585439482e-06
sI323
F1.4228967901708245e-06
sI324
F1.4169425229804133e-06
sI325
F1.4219065576082102e-06
sI326
F1.4165759275597267e-06
sI327
F1.4285635369093441e-06
sI328
F1.4130686678548443e-06
sI329
F1.4238692657153607e-06
sI330
F1.415739070309563e-06
sI331
F1.4115005393389168e-06
sI332
F1.418212158710297e-06
sI333
F1.419477434261296e-06
sI334
F1.4197632687285022e-06
sI335
F1.4319254271200066e-06
sI336
F1.4064120410495207e-06
sI337
F1.409728162315993e-06
sI338
F1.429876614111869e-06
sI339
F1.4176624587580733e-06
sI340
F1.4202767421034324e-06
sI341
F1.415943049254409e-06
sI342
F1.4189671343478594e-06
sI343
F1.4276771918009246e-06
sI344
F1.4112279711486764e-06
sI345
F1.42939688729804e-06
sI346
F1.4069481157896746e-06
sI347
F1.3991914080691004e-06
sI348
F1.4233096380378285e-06
sI349
F1.4238599637117488e-06
sI350
F1.413137659889152e-06
sI351
F1.417842643181011e-06
sI352
F1.4239292533968495e-06
sI353
F1.421599513662386e-06
sI354
F1.4186770557200745e-06
sI355
F1.4297399878460126e-06
sI356
F1.4141806473633167e-06
sI357
F1.4197175569607978e-06
sI358
F1.423901135555461e-06
sI359
F1.4321788127658053e-06
sI360
F1.4288021231712023e-06
sI361
F1.4534429554347028e-06
sI362
F1.4480062050514775e-06
sI363
F1.4430777085516766e-06
sI364
F1.4381945729891044e-06
sI365
F1.4334014343253543e-06
sI366
F1.423858693727631e-06
sI367
F1.4193992453614968e-06
sI368
F1.4152595959604497e-06
sI369
F1.4288021231712023e-06
sI370
F1.4306098061744876e-06
sI371
F1.4296513350942064e-06
sI372
F1.4280200110183827e-06
sI373
F1.4267497561171183e-06
sI374
F1.440047223688623e-06
sI375
F1.4380794189916557e-06
sI376
F1.4425833418929557e-06
sI377
F1.4391228312371496e-06
sI378
F1.4409787881808356e-06
sI379
F1.4414339749579952e-06
sI380
F1.4394942480233652e-06
sI381
F1.446546543881766e-06
sI382
F1.4335705590395875e-06
sI383
F1.4392660483419917e-06
sI384
F1.4408013958577826e-06
sI385
F1.462033028643006e-06
sI386
F1.4305942178660658e-06
sI387
F1.4397189864734372e-06
sI388
F1.4404454652394705e-06
sI389
F1.447955347066987e-06
sI390
F1.4315561082112183e-06
sI391
F1.4504645812207784e-06
sI392
F1.4342018339608131e-06
sI393
F1.4392787106576321e-06
sI394
F1.4409008370908083e-06
sI395
F1.4458926708149633e-06
sI396
F1.4358620380461318e-06
sI397
F1.424758618084887e-06
sI398
F1.4548009196202472e-06
sI399
F1.435018496254159e-06
sI400
F1.4519084171604746e-06
sI401
F1.43130200991326e-06
sI402
F1.438606390347097e-06
sI403
F1.437577921148403e-06
sI404
F1.4478568015618976e-06
sI405
F1.447698973033873e-06
sI406
F1.4226984882403926e-06
sI407
F1.4396388342552413e-06
sI408
F1.4386533518928601e-06
sI409
F1.44700707449541e-06
sI410
F1.4349269666924513e-06
sI411
F1.4388381890384494e-06
sI412
F1.4375681196554524e-06
sI413
F1.4512238436514835e-06
sI414
F1.432299919779112e-06
sI415
F1.4332570544839385e-06
sI416
F1.450263473312674e-06
sI417
F1.4378167869644187e-06
sI418
F1.452033787097129e-06
sI419
F1.44593113249325e-06
sI420
F1.43507753991301e-06
sI421
F1.436956216460672e-06
sI422
F1.4427585977028201e-06
sI423
F1.4355095070417434e-06
sI424
F1.4418288086792685e-06
sI425
F1.440047223688623e-06
sI426
F1.4351051698113793e-06
sI427
F1.4420849715479633e-06
sI428
F1.4383215606317279e-06
sI429
F1.4543038574510447e-06
sI430
F1.4513251288539308e-06
sI431
F1.4478880127066773e-06
sI432
F1.4438080399026276e-06
sI433
F1.4414771029036544e-06
sI434
F1.4353036499326066e-06
sI435
F1.4334241473790144e-06
sI436
F1.4304616374749557e-06
sI437
F1.4383215606317279e-06
sI438
F1.4402851855610521e-06
sI439
F1.439149005078022e-06
sI440
F1.4375956615131358e-06
sI441
F1.4369794697488558e-06
sI442
F1.41046202550843e-06
sI443
F1.412265352107589e-06
sI444
F1.4144171199825806e-06
sI445
F1.4098697455056097e-06
sI446
F1.4112487694006859e-06
sI447
F1.4290764887014973e-06
sI448
F1.4003992151456757e-06
sI449
F1.412839811587574e-06
sI450
F1.4106310769479435e-06
sI451
F1.4007310006336482e-06
sI452
F1.4087683412045138e-06
sI453
F1.4028276230648729e-06
sI454
F1.4075112844125215e-06
sI455
F1.415044416974709e-06
sI456
F1.4113166694196266e-06
sI457
F1.4108121486611225e-06
sI458
F1.4070868149529403e-06
sI459
F1.404188125775363e-06
sI460
F1.4174687458234914e-06
sI461
F1.4070542000421682e-06
sI462
F1.4162103739723264e-06
sI463
F1.4120083033919428e-06
sI464
F1.4086626042297823e-06
sI465
F1.4169219234583252e-06
sI466
F1.4103923808850283e-06
sI467
F1.409880797442753e-06
sI468
F1.4084602235620025e-06
sI469
F1.41367559414185e-06
sI470
F1.4168105917367058e-06
sI471
F1.4108453572081459e-06
sI472
F1.4054764986282109e-06
sI473
F1.2936248516837168e-06
sI474
F1.3005875253990773e-06
sI475
F1.2922841482465586e-06
sI476
F1.309877815991456e-06
sI477
F1.2736468315566185e-06
sI478
F1.2936938685870203e-06
sI479
F1.2926611760999407e-06
sI480
F1.307469402023198e-06
sI481
F1.2969971137644087e-06
sI482
F1.2938172433973882e-06
sI483
F1.281981387935005e-06
sI484
F1.280563292627157e-06
sI485
F1.3068009980798934e-06
sI486
F1.3001357858644091e-06
sI487
F1.3098161497637761e-06
sI488
F1.3066962030738871e-06
sI489
F1.286975530090384e-06
sI490
F1.3008592995022994e-06
sI491
F1.3094877315822373e-06
sI492
F1.316356617542258e-06
sI493
F1.3032386493860848e-06
sI494
F1.3313599361575168e-06
sI495
F1.306554794855419e-06
sI496
F1.3131891329898338e-06
sI497
F1.2945884905191107e-06
sI498
F1.3155153136823472e-06
sI499
F1.2724152866905314e-06
sI500
F1.2881897105687656e-06
sI501
F1.3115138735586562e-06
sI502
F1.2808219767013185e-06
sI503
F1.2826633429829926e-06
sI504
F1.2864043709148731e-06
sI505
F1.3016318000103055e-06
sI506
F1.3182470742778563e-06
sI507
F1.2806628952866106e-06
sI508
F1.2900495285350644e-06
sI509
F1.2963584857805799e-06
sI510
F1.301738459746904e-06
sI511
F1.286126033006596e-06
sI512
F1.311183812302552e-06
sI513
F1.280201880282661e-06
sI514
F1.2726521780859201e-06
sI515
F1.2937908081545046e-06
sI516
F1.290425705735565e-06
sI517
F1.2824496124497209e-06
sI518
F1.2886026067304712e-06
sI519
F1.2845813405770734e-06
sI520
F1.298606962740756e-06
sI521
F1.2729856153359531e-06
sI522
F1.2581910577291744e-06
sI523
F1.2845876285819124e-06
sI524
F1.294745904545369e-06
sI525
F1.3232640597715672e-06
sI526
F1.2920206677868862e-06
sI527
F1.2992047925264316e-06
sI528
F1.3028244496282593e-06
sI529
F1.299137978305609e-06
sI530
F1.3068982228081616e-06
sI531
F1.329026535171196e-06
sI532
F1.30396263725574e-06
sI533
F1.2941574731722971e-06
sI534
F1.2689872093130106e-06
sI535
F1.2725520055073547e-06
sI536
F1.3041011539538516e-06
sI537
F1.2733995831681888e-06
sI538
F1.3051382380391274e-06
sI539
F1.2851095447796723e-06
sI540
F1.3138262114076316e-06
sI541
F1.2687550634549183e-06
sI542
F1.3015772826197036e-06
sI543
F1.2985848887314688e-06
sI544
F1.2920647129988083e-06
sI545
F1.276633068647559e-06
sI546
F1.2833206519680118e-06
sI547
F1.2806678538757055e-06
sI548
F1.288736499627241e-06
sI549
F1.2805508184665637e-06
sI550
F1.2881345035076208e-06
sI551
F1.2974348703176375e-06
sI552
F1.3086750634272448e-06
sI553
F1.3049605406267872e-06
sI554
F1.3022484354197061e-06
sI555
F1.286975530090384e-06
sI556
F1.3044892879232606e-06
sI557
F1.2880061706077583e-06
sI558
F1.2741777483116223e-06
sI559
F1.3007875416803927e-06
sI560
F1.2629851086076727e-06
sI561
F1.30066626488623e-06
sI562
F1.2619363413124418e-06
sI563
F1.306881270979332e-06
sI564
F1.3045559368318749e-06
sI565
F1.2646432623886206e-06
sI566
F1.27339698832718e-06
sI567
F1.292022631160794e-06
sI568
F1.2863601815960024e-06
sI569
F1.3081559764316353e-06
sI570
F1.2983727262771971e-06
sI571
F1.2956345706027772e-06
sI572
F1.2859904298112568e-06
sI573
F1.287239351777103e-06
sI574
F1.3022869050915986e-06
sI575
F1.3130054408172498e-06
sI576
F1.290423108757377e-06
sI577
F1.3330697029578786e-06
sI578
F1.2894285504327918e-06
sI579
F1.3038421015076906e-06
sI580
F1.3177462444557975e-06
sI581
F1.3080485417593657e-06
sI582
F1.2950224820285072e-06
sI583
F1.3055287847452135e-06
sI584
F1.3122053512670817e-06
sI585
F1.2866894327778766e-06
sI586
F1.3040416285692302e-06
sI587
F1.3144347384974608e-06
sI588
F1.305491651559798e-06
sI589
F1.3090140033034103e-06
sI590
F1.2899945726063677e-06
sI591
F1.3050502776223993e-06
sI592
F1.305950208418949e-06
sI593
F1.295540793533334e-06
sI594
F1.2941529689003417e-06
sI595
F1.3110863822385355e-06
sI596
F1.3026422153727957e-06
sI597
F1.3029855159274462e-06
sI598
F1.2762186698545008e-06
sI599
F1.327454905664105e-06
sI600
F1.3136304348737582e-06
sI601
F1.2967847311529113e-06
sI602
F1.2926986363570592e-06
sI603
F1.3027479810884257e-06
sI604
F1.29305407170488e-06
sI605
F1.3059827619343878e-06
sI606
F1.3363772068397672e-06
sI607
F1.3136763351573322e-06
sI608
F1.2954173179702266e-06
sI609
F1.2924966100724689e-06
sI610
F1.3147669983837318e-06
sI611
F1.2914542085740166e-06
sI612
F1.2949213514801272e-06
sI613
F1.3012081466756698e-06
sI614
F1.296720388122008e-06
sI615
F1.2856035352393214e-06
sI616
F1.285743964740682e-06
sI617
F1.2795662212017334e-06
sI618
F1.3293732518682155e-06
sI619
F1.3023044931337324e-06
sI620
F1.296592431643262e-06
sI621
F1.3040416285692302e-06
sI622
F1.3055736657330286e-06
sI623
F1.2990601633289245e-06
sI624
F1.3036447522596362e-06
sI625
F1.336653332684179e-06
sI626
F1.3082103192951777e-06
sI627
F1.3270853438385188e-06
sI628
F1.293219604292517e-06
sI629
F1.295589305783107e-06
sI630
F1.2919719266646368e-06
sI631
F1.332110692531252e-06
sI632
F1.3008151539262158e-06
sI633
F1.31509322354173e-06
sI634
F1.2929559410901348e-06
sI635
F1.3059376650081944e-06
sI636
F1.3084532676232996e-06
sI637
F1.2904283909209724e-06
sI638
F1.302015584125904e-06
sI639
F1.2750632176483645e-06
sI640
F1.298055179232982e-06
sI641
F1.303747789282994e-06
sI642
F1.3014148784185053e-06
sI643
F1.3130157840990364e-06
sI644
F1.2955836766748163e-06
sI645
F1.3015411144401412e-06
sI646
F1.2798449928741462e-06
sI647
F1.28378068420254e-06
sI648
F1.2957060602225567e-06
sI649
F1.2879853079628134e-06
sI650
F1.2897605793371625e-06
sI651
F1.3008620957100092e-06
sI652
F1.3214043338982684e-06
sI653
F1.3116954790115543e-06
sI654
F1.2889550412564788e-06
sI655
F1.2860009702131414e-06
sI656
F1.3235068118122584e-06
sI657
F1.2861145564091458e-06
sI658
F1.3097165668662925e-06
sI659
F1.3063223582299166e-06
sI660
F1.3214358728363962e-06
sI661
F1.3100796570908457e-06
sI662
F1.313896726806707e-06
sI663
F1.292471176805865e-06
sI664
F1.3286461971739882e-06
sI665
F1.303845697353534e-06
sI666
F1.2983461833981913e-06
sI667
F1.3059250194014105e-06
sI668
F1.2897567424063894e-06
sI669
F1.2912013978017e-06
sI670
F1.29364562118095e-06
sI671
F1.3098395720834155e-06
sI672
F1.30647607410328e-06
sI673
F1.285309638610066e-06
sI674
F1.2850091301030986e-06
sI675
F1.410758505793197e-06
sI676
F1.404429937013063e-06
sI677
F1.3888237244685797e-06
sI678
F1.4064765844201688e-06
sI679
F1.4380858879281533e-06
sI680
F1.44840778504296e-06
sI681
F1.3632982089895052e-06
sI682
F1.4003269280804531e-06
sI683
F1.4193659756411847e-06
sI684
F1.4081221350048523e-06
sI685
F1.4487317255840182e-06
sI686
F1.4434144449682051e-06
sI687
F1.4095765372701408e-06
sI688
F1.4072849723323344e-06
sI689
F1.3878856418569896e-06
sI690
F1.4178634564210313e-06
sI691
F1.3919781557403255e-06
sI692
F1.4061489728156573e-06
sI693
F1.3891006950261797e-06
sI694
F1.3891853973824198e-06
sI695
F1.4033324691187232e-06
sI696
F1.4386275974942464e-06
sI697
F1.418317675638825e-06
sI698
F1.448744074927788e-06
sI699
F1.4384568667313857e-06
sI700
F1.3957943876263812e-06
sI701
F1.4160073076308066e-06
sI702
F1.3736949923126573e-06
sI703
F1.3898003384804625e-06
sI704
F1.3899389265104034e-06
sI705
F1.3951128577938121e-06
sI706
F1.4207247720499083e-06
sI707
F1.4542622294166918e-06
sI708
F1.4106607770791868e-06
sI709
F1.4245033119753003e-06
sI710
F1.4215474051226806e-06
sI711
F1.3871092391370965e-06
sI712
F1.383721002334859e-06
sI713
F1.4163706536507448e-06
sI714
F1.4303760270673038e-06
sI715
F1.391852455401299e-06
sI716
F1.4115124385982725e-06
sI717
F1.403002419908539e-06
sI718
F1.4284023178712246e-06
sI719
F1.4031315075380135e-06
sI720
F1.416038068247083e-06
sI721
F1.4355285363754078e-06
sI722
F1.3943403043281677e-06
sI723
F1.3935451611546412e-06
sI724
F1.3880709586189255e-06
sI725
F1.3934621496680677e-06
sI726
F1.3883651103219208e-06
sI727
F1.4266366050730284e-06
sI728
F1.4080850152531355e-06
sI729
F1.4617206367528723e-06
sI730
F1.4142792663651704e-06
sI731
F1.3897054175204815e-06
sI732
F1.3725501651906669e-06
sI733
F1.3913066430615295e-06
sI734
F1.4176183831260403e-06
sI735
F1.4215738340928041e-06
sI736
F1.4178668502617953e-06
sI737
F1.4223041344685328e-06
sI738
F1.439067207620326e-06
sI739
F1.3953881197181772e-06
sI740
F1.4356536311987966e-06
sI741
F1.401592931493667e-06
sI742
F1.4830599662785104e-06
sI743
F1.3927908273370093e-06
sI744
F1.45105204518714e-06
sI745
F1.3881684797212301e-06
sI746
F1.4094633550287838e-06
sI747
F1.4054930097540108e-06
sI748
F1.4506260869184828e-06
sI749
F1.4367081914157254e-06
sI750
F1.4050123199327302e-06
sI751
F1.4440975754093088e-06
sI752
F1.4167565469680454e-06
sI753
F1.4492858836367972e-06
sI754
F1.4130795977784771e-06
sI755
F1.4069268544636415e-06
sI756
F1.41063195291391e-06
sI757
F1.42760617038995e-06
sI758
F1.3720813704098944e-06
sI759
F1.3948851587120004e-06
sI760
F1.4205742351336426e-06
sI761
F1.41636822559299e-06
sI762
F1.3855649473315523e-06
sI763
F1.3839713962626732e-06
sI764
F1.4033040576233446e-06
sI765
F1.406134157000416e-06
sI766
F1.4115412741988465e-06
sI767
F1.4127099818850297e-06
sI768
F1.3791070169189013e-06
sI769
F1.449710787193581e-06
sI770
F1.3720983338405546e-06
sI771
F1.4073580738571678e-06
sI772
F1.4290101604252925e-06
sI773
F1.3974705176389435e-06
sI774
F1.4067699067865647e-06
sI775
F1.346294133286463e-06
sI776
F1.3991065273000203e-06
sI777
F1.4745284298012251e-06
sI778
F1.410758505793197e-06
sI779
F1.404429937013063e-06
sI780
F1.3888237244685797e-06
sI781
F1.4064765844201688e-06
sI782
F1.4380858879281533e-06
sI783
F1.44840778504296e-06
sI784
F1.3632982089895052e-06
sI785
F1.4003269280804531e-06
sI786
F1.4193659756411847e-06
sI787
F1.4081221350048523e-06
sI788
F1.4487317255840182e-06
sI789
F1.4434144449682051e-06
sI790
F1.4095765372701408e-06
sI791
F1.4072849723323344e-06
sI792
F1.3878856418569896e-06
sI793
F1.4178634564210313e-06
sI794
F1.3919781557403255e-06
sI795
F1.4061489728156573e-06
sI796
F1.3891006950261797e-06
sI797
F1.3891853973824198e-06
sI798
F1.4033324691187232e-06
sI799
F1.4386275974942464e-06
sI800
F1.418317675638825e-06
sI801
F1.448744074927788e-06
sI802
F1.4384568667313857e-06
sI803
F1.3957943876263812e-06
sI804
F1.4160073076308066e-06
sI805
F1.3736949923126573e-06
sI806
F1.3898003384804625e-06
sI807
F1.3899389265104034e-06
sI808
F1.3951128577938121e-06
sI809
F1.4207247720499083e-06
sI810
F1.4542622294166918e-06
sI811
F1.4106607770791868e-06
sI812
F1.4245033119753003e-06
sI813
F1.4215474051226806e-06
sI814
F1.3871092391370965e-06
sI815
F1.383721002334859e-06
sI816
F1.4163706536507448e-06
sI817
F1.4303760270673038e-06
sI818
F1.391852455401299e-06
sI819
F1.4115124385982725e-06
sI820
F1.403002419908539e-06
sI821
F1.4284023178712246e-06
sI822
F1.4031315075380135e-06
sI823
F1.416038068247083e-06
sI824
F1.4355285363754078e-06
sI825
F1.3943403043281677e-06
sI826
F1.3935451611546412e-06
sI827
F1.3880709586189255e-06
sI828
F1.3934621496680677e-06
sI829
F1.3883651103219208e-06
sI830
F1.4266366050730284e-06
sI831
F1.4080850152531355e-06
sI832
F1.4617206367528723e-06
sI833
F1.4142792663651704e-06
sI834
F1.3897054175204815e-06
sI835
F1.3725501651906669e-06
sI836
F1.3913066430615295e-06
sI837
F1.4176183831260403e-06
sI838
F1.4215738340928041e-06
sI839
F1.4178668502617953e-06
sI840
F1.4223041344685328e-06
sI841
F1.439067207620326e-06
sI842
F1.3953881197181772e-06
sI843
F1.4356536311987966e-06
sI844
F1.401592931493667e-06
sI845
F1.4830599662785104e-06
sI846
F1.3927908273370093e-06
sI847
F1.45105204518714e-06
sI848
F1.3881684797212301e-06
sI849
F1.4094633550287838e-06
sI850
F1.4054930097540108e-06
sI851
F1.4506260869184828e-06
sI852
F1.4367081914157254e-06
sI853
F1.4050123199327302e-06
sI854
F1.4440975754093088e-06
sI855
F1.4167565469680454e-06
sI856
F1.4492858836367972e-06
sI857
F1.4130795977784771e-06
sI858
F1.4069268544636415e-06
sI859
F1.41063195291391e-06
sI860
F1.42760617038995e-06
sI861
F1.3720813704098944e-06
sI862
F1.3948851587120004e-06
sI863
F1.4205742351336426e-06
sI864
F1.41636822559299e-06
sI865
F1.3855649473315523e-06
sI866
F1.3839713962626732e-06
sI867
F1.4033040576233446e-06
sI868
F1.406134157000416e-06
sI869
F1.4115412741988465e-06
sI870
F1.4127099818850297e-06
sI871
F1.3791070169189013e-06
sI872
F1.449710787193581e-06
sI873
F1.3720983338405546e-06
sI874
F1.4073580738571678e-06
sI875
F1.4290101604252925e-06
sI876
F1.3974705176389435e-06
sI877
F1.4067699067865647e-06
sI878
F1.346294133286463e-06
sI879
F1.4063760765958833e-06
sI880
F1.4114929729469594e-06
sI881
F1.4220433027789525e-06
sI-1
F100000.0
s.