(dp0
I0
F58.06442563980818
sI1
F52.4604828171432
sI2
F64.66600609570742
sI3
F58.06442563980818
sI4
F52.4604828171432
sI5
F64.66600609570742
sI6
F58.06442563980818
sI7
F52.4604828171432
sI8
F64.66600609570742
sI9
F57.00873123854399
sI10
F56.968800231814384
sI11
F56.98057642579079
sI12
F56.930967308580875
sI13
F57.165952276438475
sI14
F57.035603512078524
sI15
F56.89365094155073
sI16
F57.06932547688484
sI17
F56.927869737148285
sI18
F57.10412980243564
sI19
F56.948027577251196
sI20
F56.723124735057354
sI21
F56.83858574181795
sI22
F56.61834583058953
sI23
F56.856048222631216
sI24
F56.93586619570851
sI25
F57.13749399408698
sI26
F56.97443109378219
sI27
F56.830581329762936
sI28
F57.04959072545171
sI29
F56.88480532541871
sI30
F57.1109771579504
sI31
F56.87131094932556
sI32
F57.08957635238767
sI33
F56.8313399925828
sI34
F56.93382092565298
sI35
F57.14888049289584
sI36
F56.87865832448006
sI37
F56.86186268925667
sI38
F57.53305637463927
sI39
F57.077761359512806
sI40
F57.03249044716358
sI41
F57.07786896824837
sI42
F57.04675793647766
sI43
F57.05963658541441
sI44
F57.012558199465275
sI45
F56.96861041709781
sI46
F57.08278548717499
sI47
F57.04246737807989
sI48
F56.99461404234171
sI49
F57.03600149974227
sI50
F56.98036142811179
sI51
F56.889845069497824
sI52
F57.02690767124295
sI53
F57.06831905245781
sI54
F56.97138635441661
sI55
F57.06989362463355
sI56
F57.070717342197895
sI57
F56.874481216073036
sI58
F56.96859531477094
sI59
F56.996515076607466
sI60
F57.01193040236831
sI61
F56.981066446751356
sI62
F57.018998727202415
sI63
F57.03882963582873
sI64
F57.012782987207174
sI65
F57.01716671139002
sI66
F57.00872814655304
sI67
F57.00758595392108
sI68
F56.99599418416619
sI69
F56.9813123755157
sI70
F56.99508608132601
sI71
F56.98130366206169
sI72
F57.02119980379939
sI73
F57.03742504119873
sI74
F56.98181442171335
sI75
F57.056530866771936
sI76
F56.98275016993284
sI77
F57.018153969198465
sI78
F57.03084831684828
sI79
F56.90623629838228
sI80
F56.98482010141015
sI81
F57.010120403021574
sI82
F56.924854908138514
sI83
F56.944466933608055
sI84
F56.95080713555217
sI85
F57.07520094886422
sI86
F56.87259615957737
sI87
F57.04815336316824
sI88
F57.048080898821354
sI89
F57.06746583431959
sI90
F57.04081344231963
sI91
F57.05701681599021
sI92
F57.03739381954074
sI93
F56.956703651696444
sI94
F57.07040189951658
sI95
F57.07395626604557
sI96
F56.9276367649436
sI97
F57.02206191793084
sI98
F56.99932415410876
sI99
F57.04578571021557
sI100
F56.96057030931115
sI101
F56.98517710715532
sI102
F57.08282909169793
sI103
F56.981802981346846
sI104
F57.08491637185216
sI105
F56.936761666089296
sI106
F57.1425179541111
sI107
F56.96839564666152
sI108
F56.99042761698365
sI109
F57.00047658011317
sI110
F57.450085781514645
sI111
F56.85307763889432
sI112
F68.24412851780653
sI113
F69.7282865345478
sI114
F68.60052564740181
sI115
F75.2603452205658
sI116
F57.46318409591913
sI117
F57.5135017670691
sI118
F57.43582679703832
sI119
F57.47602526843548
sI120
F57.45664592459798
sI121
F57.349373649805784
sI122
F57.61766403913498
sI123
F57.369322035461664
sI124
F57.52405081316829
sI125
F57.45558190345764
sI126
F57.47039043903351
sI127
F57.63557254895568
sI128
F57.2916872613132
sI129
F57.650615215301514
sI130
F57.26186218485236
sI131
F56.405578054487705
sI132
F58.65539025515318
sI133
F57.091957684606314
sI134
F57.747728288173676
sI135
F57.907060243189335
sI136
F56.92361183837056
sI137
F58.82664171606302
sI138
F56.1095967143774
sI139
F57.096870701760054
sI140
F57.74224976077676
sI141
F57.46398666501045
sI142
F57.51512321829796
sI143
F56.99543243274093
sI144
F57.82332065701485
sI145
F57.57524460554123
sI146
F57.390395037829876
sI147
F57.55637101456523
sI148
F57.4568561129272
sI149
F57.817613035440445
sI150
F57.29524904116988
sI151
F57.458663161844015
sI152
F57.464999709278345
sI153
F57.94699712097645
sI154
F56.84070387110114
sI155
F57.640007160604
sI156
F56.99884408712387
sI157
F68.87040270864964
sI158
F69.14722257852554
sI159
F68.64395695179701
sI160
F68.8171190097928
sI161
F68.92886127531528
sI162
F68.8512957021594
sI163
F68.89642871171236
sI164
F68.90653441101313
sI165
F68.84379151463509
sI166
F68.80889043956995
sI167
F68.95676507800817
sI168
F68.5123263373971
sI169
F69.09131300449371
sI170
F68.88458389043808
sI171
F68.85330414772034
sI172
F68.83157929778099
sI173
F68.88396835327148
sI174
F67.7960908189416
sI175
F70.2220478579402
sI176
F69.00072651356459
sI177
F68.74500524252653
sI178
F70.5359160527587
sI179
F66.17864346504211
sI180
F67.724136762321
sI181
F69.61976028233767
sI182
F68.16093298792839
sI183
F69.21814814209938
sI184
F68.47419826686382
sI185
F69.27924337238073
sI186
F68.31143067777157
sI187
F69.83409873396158
sI188
F68.6225259155035
sI189
F68.96985693275928
sI190
F69.0152447372675
sI191
F68.78219772875309
sI192
F69.34898350387812
sI193
F68.6266265437007
sI194
F68.73573309183121
sI195
F69.60186971724033
sI196
F69.03378722816706
sI197
F68.8277410492301
sI198
F68.87040270864964
sI199
F69.25447576493025
sI200
F69.11253927648067
sI201
F68.97870958596468
sI202
F68.7715306058526
sI203
F68.67722546309233
sI204
F68.5939422994852
sI205
F68.78757108002901
sI206
F69.13218493014574
sI207
F68.44307190179825
sI208
F68.75907422602177
sI209
F68.80783046036959
sI210
F68.80470631271601
sI211
F68.77049895375967
sI212
F68.78091895580292
sI213
F68.79434352368116
sI214
F68.77114337682724
sI215
F68.79515264928341
sI216
F68.85455786436796
sI217
F68.73368173092604
sI218
F68.49638758599758
sI219
F68.95908672362566
sI220
F68.81361192464828
sI221
F68.71017514914274
sI222
F66.59447751194239
sI223
F70.7573759406805
sI224
F68.36314640939236
sI225
F69.31440646201372
sI226
F68.41122671216726
sI227
F68.95098105818033
sI228
F68.21911233663559
sI229
F69.06306663900614
sI230
F70.09659792482853
sI231
F67.6926726475358
sI232
F68.53269233554602
sI233
F69.16259328275919
sI234
F68.32538267225027
sI235
F69.38839311897755
sI236
F68.39909990131855
sI237
F68.92616306245327
sI238
F68.58505403995514
sI239
F69.16428361088037
sI240
F68.38921211659908
sI241
F69.23583057522774
sI242
F68.69923576712608
sI243
F69.15954303741455
sI244
F68.73258271813393
sI245
F69.12531558424234
sI246
F68.78757108002901
sI247
F69.19069750607014
sI248
F69.03696937859058
sI249
F68.89666505157948
sI250
F68.67777148634195
sI251
F68.57827214151621
sI252
F68.5047719180584
sI253
F67.1257903277874
sI254
F67.16698028892279
sI255
F67.0796896442771
sI256
F67.18764460086823
sI257
F67.0798993781209
sI258
F67.52732342481613
sI259
F66.73621086031199
sI260
F67.03711730986834
sI261
F67.23662939667702
sI262
F67.1382790133357
sI263
F67.10696341097355
sI264
F67.12080013006926
sI265
F67.13414676487446
sI266
F67.13270810246468
sI267
F67.11498297005892
sI268
F67.16933215409517
sI269
F67.09494974464178
sI270
F66.9657560735941
sI271
F67.30395041406155
sI272
F67.03485198318958
sI273
F67.1940807402134
sI274
F66.9404166340828
sI275
F67.31627023220062
sI276
F66.84178964793682
sI277
F67.39635107666254
sI278
F66.6234886571765
sI279
F67.75067923218012
sI280
F67.0104603767395
sI281
F67.11940404772758
sI282
F66.07498893886805
sI283
F68.40411841869354
sI284
F65.1409037783742
sI285
F68.7219328507781
sI286
F67.27799681574106
sI287
F66.92664888501167
sI288
F67.40139155834913
sI289
F66.47004698216915
sI290
F67.05894736200571
sI291
F67.13174071162939
sI292
F66.80910412222147
sI293
F67.43884355574846
sI294
F66.26562294363976
sI295
F68.15990453213453
sI296
F67.32904151082039
sI297
F67.10924728959799
sI298
F67.00638460367918
sI299
F67.43457923829556
sI300
F67.156184643507
sI301
F67.5148199275136
sI302
F67.02999380975962
sI303
F67.1887674704194
sI304
F67.68535805493593
sI305
F67.73207804560661
sI306
F67.6360927298665
sI307
F67.75345696508884
sI308
F67.63901934027672
sI309
F68.10658217221498
sI310
F67.29582290351391
sI311
F67.57208214700222
sI312
F67.81564094126225
sI313
F67.69379445165396
sI314
F67.67453358322382
sI315
F67.68310198932886
sI316
F67.68659142404795
sI317
F67.69611929357052
sI318
F67.66711784899235
sI319
F67.72479743510485
sI320
F67.66316255927086
sI321
F67.49157125502825
sI322
F67.91293220221996
sI323
F67.64003088325262
sI324
F67.72386299073696
sI325
F67.52189932018518
sI326
F67.8958480283618
sI327
F67.34785249084234
sI328
F67.89572838693857
sI329
F68.66337217390537
sI330
F66.74130283296108
sI331
F67.59353681653738
sI332
F67.67813480645418
sI333
F66.86623032391071
sI334
F68.69362808018923
sI335
F66.24254419654608
sI336
F69.395263671875
sI337
F68.18844851106405
sI338
F67.2114721685648
sI339
F67.95117025822401
sI340
F66.99467673152685
sI341
F67.66390706598759
sI342
F67.63823706656694
sI343
F67.38976640254259
sI344
F68.02642028033733
sI345
F66.80764664709568
sI346
F68.68534039705992
sI347
F67.95355395972729
sI348
F67.61271873861551
sI349
F67.52915106713772
sI350
F68.07694020867348
sI351
F67.77434134483337
sI352
F68.06472622603178
sI353
F67.57937199622393
sI354
F67.77664117515087
sI355
F67.1257903277874
sI356
F68.06432827562094
sI357
F67.68535805493593
sI358
F67.46406157314777
sI359
F67.10965478420258
sI360
F67.21286458522081
sI361
F67.78005549311638
sI362
F67.71795956790447
sI363
F67.61963713914156
sI364
F67.51057313382626
sI365
F67.37387722730637
sI366
F67.0829393491149
sI367
F66.91040347516537
sI368
F66.72414819151163
sI369
F67.21286458522081
sI370
F67.42913506925106
sI371
F67.31204055249691
sI372
F67.13082110881805
sI373
F67.0968875810504
sI374
F70.0396799147129
sI375
F70.02302398532629
sI376
F70.06142807006836
sI377
F70.27448268979788
sI378
F69.80667661130428
sI379
F70.24611092358828
sI380
F69.956058755517
sI381
F70.15640845149755
sI382
F69.92515203356743
sI383
F70.08048295974731
sI384
F69.99957163631916
sI385
F70.0673198774457
sI386
F70.02799428254366
sI387
F70.01092090457678
sI388
F70.07624663412571
sI389
F70.11111211776733
sI390
F69.96519051492214
sI391
F69.87157923728228
sI392
F70.13553709536791
sI393
F70.0810534581542
sI394
F69.9818459302187
sI395
F69.99804064631462
sI396
F70.06840932369232
sI397
F70.22037690132856
sI398
F69.87122886627913
sI399
F70.08038110285997
sI400
F69.9248655885458
sI401
F69.78985210508108
sI402
F70.12057416141033
sI403
F70.93305093795061
sI404
F67.87918230891228
sI405
F69.30548180639744
sI406
F71.613973043859
sI407
F70.38365091383457
sI408
F69.37355320900679
sI409
F68.86546180397272
sI410
F70.5696360617876
sI411
F69.96479177474976
sI412
F70.11164090782404
sI413
F69.5491376966238
sI414
F70.42048382014036
sI415
F70.95759151130915
sI416
F68.74287250638008
sI417
F70.12172451615334
sI418
F69.58278051018715
sI419
F69.9997166544199
sI420
F70.12595125287771
sI421
F70.19606732577085
sI422
F69.97736364603043
sI423
F70.45254385471344
sI424
F69.76973062753677
sI425
F70.0396799147129
sI426
F69.88190411776304
sI427
F70.68956707417965
sI428
F70.29045444726944
sI429
F71.42461321502924
sI430
F71.21001846343279
sI431
F70.99425163120031
sI432
F70.78273516893387
sI433
F70.53212755173445
sI434
F69.98731635510921
sI435
F69.68073451519012
sI436
F69.41090661287308
sI437
F70.29045444726944
sI438
F70.47046133130789
sI439
F70.37083149701357
sI440
F70.22706694155931
sI441
F70.17468356341124
sI442
F69.06621218472719
sI443
F69.28043560683727
sI444
F69.56987796723843
sI445
F68.57442588359118
sI446
F69.1487137824297
sI447
F68.17592199891806
sI448
F69.6960671544075
sI449
F69.42885455489159
sI450
F68.99536453187466
sI451
F69.65243063867092
sI452
F69.2903406098485
sI453
F67.44003351032734
sI454
F69.35793533176184
sI455
F68.59782759100199
sI456
F69.05684866011143
sI457
F69.93451796472073
sI458
F69.45384957641363
sI459
F69.86545880138874
sI460
F68.50490495562553
sI461
F69.13222976028919
sI462
F68.56885962933302
sI463
F69.05626065284014
sI464
F69.27427709847689
sI465
F68.57785596698523
sI466
F68.89738683402538
sI467
F69.04285239428282
sI468
F69.2005263119936
sI469
F68.59500639140606
sI470
F68.84341976046562
sI471
F69.12607502937317
sI472
F68.63927110284567
sI473
F58.06442563980818
sI474
F59.33980202302337
sI475
F57.42427321523428
sI476
F58.091725789010525
sI477
F58.79467701911926
sI478
F57.619057919830084
sI479
F60.06446851417422
sI480
F57.55557155609131
sI481
F57.40991712734103
sI482
F57.58521793037653
sI483
F60.39340258017182
sI484
F57.46725337207317
sI485
F59.25675605237484
sI486
F57.56457291543484
sI487
F57.95909724012017
sI488
F55.55420137196779
sI489
F57.57125496119261
sI490
F58.39680198952556
sI491
F57.55198721587658
sI492
F55.99586724489927
sI493
F56.325062710791826
sI494
F57.75455724820495
sI495
F55.73507292103022
sI496
F56.461528811603785
sI497
F58.438980769366026
sI498
F57.36786903068423
sI499
F57.36804999411106
sI500
F58.532639015465975
sI501
F58.14054108038545
sI502
F58.283626303076744
sI503
F58.55986678227782
sI504
F58.7278637252748
sI505
F58.00327557325363
sI506
F57.55006938055158
sI507
F59.449372444301844
sI508
F57.379437536001205
sI509
F58.21575831621885
sI510
F56.79177175834775
sI511
F58.768591072410345
sI512
F58.784604128450155
sI513
F58.54324012249708
sI514
F58.13019346445799
sI515
F60.003384470939636
sI516
F59.0196496732533
sI517
F59.490762781351805
sI518
F57.68435511365533
sI519
F58.11615996042383
sI520
F58.713616624474525
sI521
F59.090004809200764
sI522
F57.64017167687416
sI523
F58.3681512363255
sI524
F58.469845578074455
sI525
F58.0627660676837
sI526
F58.260451439768076
sI527
F57.70787611231208
sI528
F57.26027432503179
sI529
F58.675537310540676
sI530
F57.17857024073601
sI531
F59.45950848981738
sI532
F56.98709988221526
sI533
F57.634437680244446
sI534
F58.321930445730686
sI535
F58.46685775369406
sI536
F56.96212551416829
sI537
F58.75806184113026
sI538
F57.16060400009155
sI539
F58.700364250689745
sI540
F57.57969957217574
sI541
F57.15180344134569
sI542
F57.76750483363867
sI543
F59.164823200553656
sI544
F57.24884893000126
sI545
F56.49448413401842
sI546
F57.473329938948154
sI547
F56.916700679808855
sI548
F57.9278949405998
sI549
F58.179138105362654
sI550
F58.149164089001715
sI551
F56.91382137336768
sI552
F57.405305955559015
sI553
F60.427160296589136
sI554
F58.90020618215203
sI555
F57.57125496119261
sI556
F58.78721284866333
sI557
F57.274346973747015
sI558
F57.67569275200367
sI559
F60.61679506674409
sI560
F57.85948659479618
sI561
F59.22999446067843
sI562
F59.267304949462414
sI563
F59.40963467955589
sI564
F58.11379900947213
sI565
F58.091406147927046
sI566
F57.723260897328146
sI567
F57.90091621875763
sI568
F58.54975613951683
sI569
F57.15714048873633
sI570
F61.376471146941185
sI571
F57.56473375065252
sI572
F56.61280136927962
sI573
F57.083024714142084
sI574
F61.210745856165886
sI575
F61.5630031041801
sI576
F63.87811863049865
sI577
F61.365249645896256
sI578
F62.04061724431813
sI579
F62.52709072083235
sI580
F64.05942404642701
sI581
F61.85356539860368
sI582
F62.174484845250845
sI583
F61.28894552215934
sI584
F60.62651851400733
sI585
F60.09730553999543
sI586
F61.859543066471815
sI587
F62.07727733999491
sI588
F62.02895762398839
sI589
F61.50849425792694
sI590
F63.25208570063114
sI591
F59.602346044033766
sI592
F60.73197699338198
sI593
F63.258001904934645
sI594
F61.71731576696038
sI595
F63.70672303438187
sI596
F60.040014673024416
sI597
F61.347187746316195
sI598
F63.33607747592032
sI599
F61.38732585683465
sI600
F59.81766350194812
sI601
F60.413589525967836
sI602
F59.566161347553134
sI603
F61.95161070674658
sI604
F62.35615016520023
sI605
F60.806521294405684
sI606
F60.81927125155926
sI607
F61.03488627076149
sI608
F59.74462282657623
sI609
F58.81648802664131
sI610
F60.873458584654145
sI611
F63.25200829282403
sI612
F61.192325212061405
sI613
F61.6064071720466
sI614
F60.94962490070611
sI615
F63.293995939195156
sI616
F62.03756857290864
sI617
F62.76257474347949
sI618
F60.8112487513572
sI619
F61.99461353570223
sI620
F61.87803664430976
sI621
F61.859543066471815
sI622
F62.23626034706831
sI623
F60.68443512171507
sI624
F59.92162587866187
sI625
F58.53476978838444
sI626
F59.39649449661374
sI627
F61.14244043454528
sI628
F61.35210490785539
sI629
F60.45083825290203
sI630
F61.67216754332185
sI631
F59.420232109725475
sI632
F60.855023216456175
sI633
F60.38221016898751
sI634
F60.21503578685224
sI635
F61.52643773239106
sI636
F61.31869453936815
sI637
F59.920950282365084
sI638
F60.39670116081834
sI639
F60.814842340536416
sI640
F62.0807087123394
sI641
F59.60861497744918
sI642
F60.65773690864444
sI643
F58.801900293678045
sI644
F61.29558448120952
sI645
F60.69371948391199
sI646
F60.85074699297547
sI647
F61.8712414073525
sI648
F61.600509241223335
sI649
F60.45759578421712
sI650
F62.720762541051954
sI651
F60.47676930204034
sI652
F59.792841389775276
sI653
F60.669069200754166
sI654
F60.595245625823736
sI655
F60.90475096553564
sI656
F62.87736290320754
sI657
F61.29569886717945
sI658
F60.091093607246876
sI659
F61.829736303538084
sI660
F60.62538127414882
sI661
F60.94739305134863
sI662
F61.59860301017761
sI663
F61.194502130150795
sI664
F60.94630032312125
sI665
F61.110882472246885
sI666
F62.659716710448265
sI667
F61.18176345527172
sI668
F61.66222726611886
sI669
F62.002060644328594
sI670
F60.65946554765105
sI671
F59.80159638822079
sI672
F61.76507230103016
sI673
F60.39458642527461
sI674
F60.2507045827806
sI675
F70.85915556550026
sI676
F72.42199136316776
sI677
F73.23830654472113
sI678
F70.96664832532406
sI679
F69.32372316718102
sI680
F72.11845098435879
sI681
F72.2937628403306
sI682
F70.02565072476864
sI683
F72.41058249381604
sI684
F70.26609336584806
sI685
F70.75483591109514
sI686
F69.36210895329714
sI687
F71.00004359334707
sI688
F72.70359128713608
sI689
F71.89367751032114
sI690
F73.38733121752739
sI691
F71.21675664745271
sI692
F77.71445385366678
sI693
F74.1725365743041
sI694
F69.63096790015697
sI695
F71.32135041803122
sI696
F69.02961786091328
sI697
F67.15317889396101
sI698
F69.45059686899185
sI699
F67.15594604797661
sI700
F70.6600681990385
sI701
F69.69988967478275
sI702
F76.17425192147493
sI703
F73.49315752089024
sI704
F73.90474686026573
sI705
F69.52177952043712
sI706
F68.7759172283113
sI707
F68.64519271999598
sI708
F69.24872257560492
sI709
F66.22072542386013
sI710
F71.32177348434925
sI711
F70.00097690522671
sI712
F73.6250815615058
sI713
F70.02781980484724
sI714
F69.50979898311198
sI715
F68.97688842564821
sI716
F68.74916303995997
sI717
F70.03403368033469
sI718
F67.39973120205104
sI719
F69.97687409073114
sI720
F67.78969728201628
sI721
F66.6095494478941
sI722
F73.36770182102919
sI723
F72.70892246812582
sI724
F72.51570416614413
sI725
F70.7306840121746
sI726
F70.01221594959497
sI727
F70.68256428092718
sI728
F68.6716197617352
sI729
F72.72886684536934
sI730
F69.7501744106412
sI731
F74.5669090077281
sI732
F70.34322366863489
sI733
F71.13753119856119
sI734
F71.89665214717388
sI735
F69.55026203021407
sI736
F69.97532685287297
sI737
F70.13600101647899
sI738
F70.27630016207695
sI739
F75.06173977255821
sI740
F67.37622795253992
sI741
F69.80060264468193
sI742
F72.3119660243392
sI743
F69.38334372639656
sI744
F71.10911274701357
sI745
F72.10772541165352
sI746
F67.23086278885603
sI747
F70.4938885346055
sI748
F71.83694113790989
sI749
F72.11574260890484
sI750
F71.92562964558601
sI751
F67.1672523766756
sI752
F68.07913130521774
sI753
F71.65583420172334
sI754
F70.35847815964371
sI755
F69.94889179803431
sI756
F67.54513376951218
sI757
F70.18206949532032
sI758
F73.32092626392841
sI759
F70.51274590939283
sI760
F73.38992015272379
sI761
F72.84102746844292
sI762
F71.50081867724657
sI763
F72.29773876816034
sI764
F72.74280572682619
sI765
F70.64604347199202
sI766
F71.60588367283344
sI767
F68.71907168626785
sI768
F73.13641872256994
sI769
F69.63006378337741
sI770
F76.83465295284986
sI771
F68.83915942162275
sI772
F70.96832212246954
sI773
F66.62748431414366
sI774
F72.84813518077135
sI775
F75.43111903965473
sI776
F69.95243737846613
sI777
F56.55837615579367
sI778
F70.85915556550026
sI779
F72.42199136316776
sI780
F73.23830654472113
sI781
F70.96664832532406
sI782
F69.32372316718102
sI783
F72.11845098435879
sI784
F72.2937628403306
sI785
F70.02565072476864
sI786
F72.41058249381604
sI787
F70.26609336584806
sI788
F70.75483591109514
sI789
F69.36210895329714
sI790
F71.00004359334707
sI791
F72.70359128713608
sI792
F71.89367751032114
sI793
F73.38733121752739
sI794
F71.21675664745271
sI795
F77.71445385366678
sI796
F74.1725365743041
sI797
F69.63096790015697
sI798
F71.32135041803122
sI799
F69.02961786091328
sI800
F67.15317889396101
sI801
F69.45059686899185
sI802
F67.15594604797661
sI803
F70.6600681990385
sI804
F69.69988967478275
sI805
F76.17425192147493
sI806
F73.49315752089024
sI807
F73.90474686026573
sI808
F69.52177952043712
sI809
F68.7759172283113
sI810
F68.64519271999598
sI811
F69.24872257560492
sI812
F66.22072542386013
sI813
F71.32177348434925
sI814
F70.00097690522671
sI815
F73.6250815615058
sI816
F70.02781980484724
sI817
F69.50979898311198
sI818
F68.97688842564821
sI819
F68.74916303995997
sI820
F70.03403368033469
sI821
F67.39973120205104
sI822
F69.97687409073114
sI823
F67.78969728201628
sI824
F66.6095494478941
sI825
F73.36770182102919
sI826
F72.70892246812582
sI827
F72.51570416614413
sI828
F70.7306840121746
sI829
F70.01221594959497
sI830
F70.68256428092718
sI831
F68.6716197617352
sI832
F72.72886684536934
sI833
F69.7501744106412
sI834
F74.5669090077281
sI835
F70.34322366863489
sI836
F71.13753119856119
sI837
F71.89665214717388
sI838
F69.55026203021407
sI839
F69.97532685287297
sI840
F70.13600101647899
sI841
F70.27630016207695
sI842
F75.06173977255821
sI843
F67.37622795253992
sI844
F69.80060264468193
sI845
F72.3119660243392
sI846
F69.38334372639656
sI847
F71.10911274701357
sI848
F72.10772541165352
sI849
F67.23086278885603
sI850
F70.4938885346055
sI851
F71.83694113790989
sI852
F72.11574260890484
sI853
F71.92562964558601
sI854
F67.1672523766756
sI855
F68.07913130521774
sI856
F71.65583420172334
sI857
F70.35847815964371
sI858
F69.94889179803431
sI859
F67.54513376951218
sI860
F70.18206949532032
sI861
F73.32092626392841
sI862
F70.51274590939283
sI863
F73.38992015272379
sI864
F72.84102746844292
sI865
F71.50081867724657
sI866
F72.29773876816034
sI867
F72.74280572682619
sI868
F70.64604347199202
sI869
F71.60588367283344
sI870
F68.71907168626785
sI871
F73.13641872256994
sI872
F69.63006378337741
sI873
F76.83465295284986
sI874
F68.83915942162275
sI875
F70.96832212246954
sI876
F66.62748431414366
sI877
F72.84813518077135
sI878
F75.43111903965473
sI879
F71.10226039588451
sI880
F70.87301363795996
sI881
F69.2983129248023
sI-1
F99966.0
s.