(dp0
I0
F722.1400754451752
sI1
F652.4440676569939
sI2
F804.2511947751045
sI3
F722.1400754451752
sI4
F652.4440676569939
sI5
F804.2511947751045
sI6
F722.1400754451752
sI7
F652.4440676569939
sI8
F804.2511947751045
sI9
F708.999516248703
sI10
F708.5066568851471
sI11
F708.5506996512413
sI12
F707.9824911952019
sI13
F710.9949501156807
sI14
F709.3443579673767
sI15
F707.5304473638535
sI16
F709.708201944828
sI17
F707.9380899071693
sI18
F710.1941837668419
sI19
F708.2779064178467
sI20
F705.4889634251595
sI21
F706.8932103514671
sI22
F704.1573243737221
sI23
F707.1042342185974
sI24
F708.0582326054573
sI25
F710.6563419699669
sI26
F708.5510353446007
sI27
F706.741333603859
sI28
F709.4975969195366
sI29
F707.3828977942467
sI30
F710.2615930438042
sI31
F707.3012795448303
sI32
F709.9668602347374
sI33
F706.7702015638351
sI34
F708.0743834972382
sI35
F710.7705273032188
sI36
F707.3798126578331
sI37
F707.2113507390022
sI38
F715.5233997106552
sI39
F709.8301820755005
sI40
F709.3055873513222
sI41
F709.896605193615
sI42
F709.5178164839745
sI43
F709.5556682944298
sI44
F709.0210317969322
sI45
F708.4955171942711
sI46
F709.8834491372108
sI47
F709.3913221955299
sI48
F708.8280195593834
sI49
F709.33144146204
sI50
F708.7110431194305
sI51
F707.4986208677292
sI52
F709.1919647455215
sI53
F709.7365725636482
sI54
F708.5146465301514
sI55
F709.8155403137207
sI56
F709.8313876986504
sI57
F707.2822470068932
sI58
F708.4791806936264
sI59
F708.8690779209137
sI60
F709.0883547663689
sI61
F708.7015991806984
sI62
F709.1357890367508
sI63
F709.3795127272606
sI64
F709.059686422348
sI65
F709.0830971002579
sI66
F708.9374619722366
sI67
F708.9524433016777
sI68
F708.8029047846794
sI69
F708.6761165261269
sI70
F708.8643896579742
sI71
F708.7183663249016
sI72
F709.1033822894096
sI73
F709.2575773000717
sI74
F708.6676381826401
sI75
F709.6594218611717
sI76
F708.7484714984894
sI77
F709.134939789772
sI78
F709.4408050775528
sI79
F707.7048147916794
sI80
F708.5793217420578
sI81
F709.0301811099052
sI82
F707.9230696558952
sI83
F708.2251031398773
sI84
F708.2434033751488
sI85
F709.8641284108162
sI86
F707.2467213869095
sI87
F709.418320775032
sI88
F709.4387523531914
sI89
F709.7261502742767
sI90
F709.3522676229477
sI91
F709.6426752209663
sI92
F709.2598381638527
sI93
F708.4773339629173
sI94
F709.6774109005928
sI95
F709.6095768809319
sI96
F708.1162877082825
sI97
F709.1516140699387
sI98
F708.7217664718628
sI99
F709.4413447976112
sI100
F708.6261731982231
sI101
F708.7213873267174
sI102
F709.7522368431091
sI103
F708.713140964508
sI104
F709.7191620469093
sI105
F708.2662246227264
sI106
F710.4546587467194
sI107
F708.5374783277512
sI108
F708.9803286194801
sI109
F708.9196439385414
sI110
F714.6897898316383
sI111
F707.0480009317398
sI112
F847.2496390938759
sI113
F866.4800552129745
sI114
F852.4467492699623
sI115
F934.6281809210777
sI116
F713.8061850667
sI117
F714.4286842346191
sI118
F713.4679478406906
sI119
F713.9660058617592
sI120
F713.7248762845993
sI121
F712.3919351100922
sI122
F715.7259414792061
sI123
F712.6400335431099
sI124
F714.5626600980759
sI125
F713.7133204936981
sI126
F713.8948767185211
sI127
F715.947495162487
sI128
F711.6761953830719
sI129
F716.1398572325706
sI130
F711.2999323010445
sI131
F700.6894958019257
sI132
F728.5885190963745
sI133
F709.2015283703804
sI134
F717.3353698849678
sI135
F719.290961265564
sI136
F707.1376405358315
sI137
F730.6615866422653
sI138
F697.0614994764328
sI139
F709.240266084671
sI140
F717.2859969139099
sI141
F713.816174030304
sI142
F714.4483184814453
sI143
F708.1369666457176
sI144
F718.1183460354805
sI145
F715.1395022273064
sI146
F712.9525260925293
sI147
F714.960902094841
sI148
F713.7278094291687
sI149
F718.2052822113037
sI150
F711.721898317337
sI151
F713.7504841089249
sI152
F713.8288102149963
sI153
F719.8686226010323
sI154
F706.0262618660927
sI155
F715.8431831002235
sI156
F708.1444028615952
sI157
F855.6937725543976
sI158
F859.1327662467957
sI159
F852.8804998993874
sI160
F855.0337891578674
sI161
F856.4179488420486
sI162
F855.4569338560104
sI163
F856.0163522362709
sI164
F856.1425225138664
sI165
F855.3632129430771
sI166
F854.9300059080124
sI167
F856.765887260437
sI168
F851.2489077448845
sI169
F858.4357993602753
sI170
F855.8677616715431
sI171
F855.4842357635498
sI172
F855.226719558239
sI173
F855.8568621873856
sI174
F842.3700598478317
sI175
F872.4548379182816
sI176
F857.3131439089775
sI177
F854.1345444917679
sI178
F876.2780072689056
sI179
F822.3980054855347
sI180
F841.508130133152
sI181
F864.9645727872849
sI182
F846.9118627905846
sI183
F859.9973766803741
sI184
F850.7846245765686
sI185
F860.7491941452026
sI186
F848.7734298706055
sI187
F867.6242179274559
sI188
F852.6299095153809
sI189
F856.9227545261383
sI190
F857.483185172081
sI191
F854.6036778688431
sI192
F861.6090296506882
sI193
F852.6808298826218
sI194
F854.1956890821457
sI195
F864.5538615584373
sI196
F857.7213874459267
sI197
F855.16398614645
sI198
F855.6937725543976
sI199
F860.4569773674011
sI200
F858.6942290067673
sI201
F857.0332035422325
sI202
F854.458698451519
sI203
F853.2881513834
sI204
F852.2538575530052
sI205
F854.7500357627869
sI206
F859.0321730971336
sI207
F850.469058573246
sI208
F854.3928352594376
sI209
F855.0038352608681
sI210
F854.9633818268776
sI211
F854.5375164747238
sI212
F854.6673955321312
sI213
F854.8342139720917
sI214
F854.5455164909363
sI215
F854.8443349599838
sI216
F855.5839167237282
sI217
F854.0791170597076
sI218
F851.133512198925
sI219
F856.8797984719276
sI220
F855.0676483511925
sI221
F853.8032561540604
sI222
F827.5688201785088
sI223
F879.1608535051346
sI224
F849.4906096458435
sI225
F861.2766318321228
sI226
F850.0821888446808
sI227
F856.7767174839973
sI228
F847.6983327269554
sI229
F858.1669679284096
sI230
F870.9541419744492
sI231
F841.1918188929558
sI232
F851.6064083576202
sI233
F859.3656934499741
sI234
F849.2257261872292
sI235
F862.041297852993
sI236
F850.0322490334511
sI237
F856.4352355003357
sI238
F852.2753154039383
sI239
F859.3551416397095
sI240
F849.8259609341621
sI241
F860.2905502915382
sI242
F853.5481848716736
sI243
F859.436391890049
sI244
F854.0596730709076
sI245
F858.9759247899055
sI246
F854.7500357627869
sI247
F859.7494768500328
sI248
F857.8412422537804
sI249
F856.1044455766678
sI250
F853.3857697844505
sI251
F852.1531423330307
sI252
F851.2414319515228
sI253
F834.1036854982376
sI254
F834.6160822510719
sI255
F833.5302399992943
sI256
F834.8737279772758
sI257
F833.5325310230255
sI258
F839.0936896800995
sI259
F829.2622566819191
sI260
F832.9975906014442
sI261
F835.4863221049309
sI262
F834.2595158815384
sI263
F833.8690491318703
sI264
F834.0426788330078
sI265
F834.2059015631676
sI266
F834.1896699666977
sI267
F833.9693550467491
sI268
F834.6437810063362
sI269
F833.7211697101593
sI270
F832.1240083575249
sI271
F836.3075151443481
sI272
F832.973013818264
sI273
F834.9529164433479
sI274
F831.8148555755615
sI275
F836.4554490447044
sI276
F830.5743526816368
sI277
F837.4660522341728
sI278
F827.8760105967522
sI279
F841.8508538603783
sI280
F832.6977142095566
sI281
F833.9856674671173
sI282
F821.0978682637215
sI283
F849.9169862270355
sI284
F809.5311154723167
sI285
F853.8504830002785
sI286
F835.9893037080765
sI287
F831.6363135576248
sI288
F837.5143933296204
sI289
F825.9808649420738
sI290
F833.2886375188828
sI291
F834.1652882099152
sI292
F830.1846597194672
sI293
F837.9775473475456
sI294
F823.4483003020287
sI295
F846.9114894866943
sI296
F836.6458742022514
sI297
F833.8852795958519
sI298
F832.6258784532547
sI299
F837.9249952435493
sI300
F834.5963319540024
sI301
F838.7321043014526
sI302
F832.9630864262581
sI303
F834.8598703145981
sI304
F841.1690374612808
sI305
F841.750129878521
sI306
F840.5559102892876
sI307
F842.016713142395
sI308
F840.5921359062195
sI309
F846.4048218131065
sI310
F836.3270770311356
sI311
F839.7554135918617
sI312
F842.7945733070374
sI313
F841.2748657464981
sI314
F841.033489882946
sI315
F841.142314016819
sI316
F841.18137383461
sI317
F841.3024315237999
sI318
F840.9425550699234
sI319
F841.6570100188255
sI320
F840.8942466378212
sI321
F838.7677747607231
sI322
F843.988757789135
sI323
F840.6031989455223
sI324
F841.6494643092155
sI325
F839.1498368382454
sI326
F843.7691577076912
sI327
F836.9693341851234
sI328
F843.7869237661362
sI329
F853.3104255795479
sI330
F829.448384821415
sI331
F840.0542017221451
sI332
F841.0480099916458
sI333
F831.020224750042
sI334
F853.6565014719963
sI335
F823.2942489385605
sI336
F862.3425287604332
sI337
F847.4039988517761
sI338
F835.2944611310959
sI339
F844.4631195664406
sI340
F832.6039807200432
sI341
F840.9140303134918
sI342
F840.5756084918976
sI343
F837.507077395916
sI344
F845.3939828276634
sI345
F830.2913467288017
sI346
F853.5621466040611
sI347
F844.5215274095535
sI348
F840.2520272731781
sI349
F839.2334162592888
sI350
F846.0209365487099
sI351
F842.3836132287979
sI352
F845.713362634182
sI353
F839.917906999588
sI354
F842.2679290771484
sI355
F834.1036854982376
sI356
F845.9080166220665
sI357
F841.1690374612808
sI358
F838.3447972536087
sI359
F833.790328502655
sI360
F835.164633333683
sI361
F842.1779465675354
sI362
F841.4101384878159
sI363
F840.2040615081787
sI364
F838.8551746606827
sI365
F837.1603527665138
sI366
F833.5463998317719
sI367
F831.4080888032913
sI368
F829.0995727181435
sI369
F835.164633333683
sI370
F837.856410741806
sI371
F836.3992243409157
sI372
F834.1424503326416
sI373
F833.7055651545525
sI374
F869.1403442025185
sI375
F868.934197306633
sI376
F869.4097712635994
sI377
F872.0497760772705
sI378
F866.2530442476273
sI379
F871.7027842998505
sI380
F868.1024295687675
sI381
F870.5938459038734
sI382
F867.7143427729607
sI383
F869.644301712513
sI384
F868.644991517067
sI385
F869.4985068440437
sI386
F868.9888307452202
sI387
F868.7836110591888
sI388
F869.5943210721016
sI389
F870.0329500436783
sI390
F868.209575176239
sI391
F867.0847662687302
sI392
F870.3127799034119
sI393
F869.6625728607178
sI394
F868.4107223749161
sI395
F868.6107909083366
sI396
F869.5058017373085
sI397
F871.3768067359924
sI398
F867.0555760264397
sI399
F869.649361550808
sI400
F867.7049260139465
sI401
F866.091250538826
sI402
F870.0773915052414
sI403
F880.0636494755745
sI404
F842.6815417408943
sI405
F860.1472256779671
sI406
F888.3920763731003
sI407
F873.3464459776878
sI408
F860.9804694652557
sI409
F854.7580837011337
sI410
F875.615915119648
sI411
F868.232156097889
sI412
F869.9872363805771
sI413
F863.1208400726318
sI414
F873.812563598156
sI415
F880.2941669821739
sI416
F853.3507636189461
sI417
F870.1462032794952
sI418
F863.5347892642021
sI419
F868.3411573767662
sI420
F870.4331673383713
sI421
F871.210899412632
sI422
F868.311067700386
sI423
F873.9551536440849
sI424
F866.0105622410774
sI425
F869.1403442025185
sI426
F867.4443548321724
sI427
F876.6715856194496
sI428
F872.1184009313583
sI429
F885.9840666055679
sI430
F883.3785907626152
sI431
F880.7360103130341
sI432
F878.1456308960915
sI433
F875.0884209275246
sI434
F868.3894189596176
sI435
F864.6119943261147
sI436
F861.2933837175369
sI437
F872.1184009313583
sI438
F874.3583852648735
sI439
F873.1210073232651
sI440
F871.3253657221794
sI441
F870.6691967248917
sI442
F858.4478685259819
sI443
F861.1242530345917
sI444
F864.7490374445915
sI445
F852.3550323843956
sI446
F859.5704521536827
sI447
F847.4123988747597
sI448
F866.2009620666504
sI449
F863.0358147025108
sI450
F857.5605772733688
sI451
F865.704498231411
sI452
F860.6905573606491
sI453
F838.2658925652504
sI454
F862.0585677623749
sI455
F852.5220017433167
sI456
F858.314753472805
sI457
F869.2208551764488
sI458
F863.256585419178
sI459
F868.3667380809784
sI460
F851.5308067798615
sI461
F859.2957885861397
sI462
F852.2975232601166
sI463
F858.3202390670776
sI464
F861.0045483112335
sI465
F852.4218069314957
sI466
F856.372667491436
sI467
F858.1563984155655
sI468
F860.126662671566
sI469
F852.6086509823799
sI470
F855.6973539590836
sI471
F859.1823628544807
sI472
F853.2556269168854
sI473
F722.1400754451752
sI474
F738.7775894999504
sI475
F713.8151229023933
sI476
F721.7953147292137
sI477
F730.8568115234375
sI478
F716.3682789802551
sI479
F746.5802593827248
sI480
F715.294649720192
sI481
F712.6813843250275
sI482
F715.9543033242226
sI483
F750.3298788070679
sI484
F717.1212341189384
sI485
F736.3955606222153
sI486
F715.5096337795258
sI487
F723.5551545917988
sI488
F691.5786355733871
sI489
F715.4088726043701
sI490
F725.8627970218658
sI491
F715.2905795574188
sI492
F696.9260085821152
sI493
F700.7153089046478
sI494
F717.6777710318565
sI495
F694.9282142519951
sI496
F701.8527666330338
sI497
F726.7890659570694
sI498
F713.0318021178246
sI499
F712.8650254607201
sI500
F727.5123154520988
sI501
F722.6715430617332
sI502
F724.4291734695435
sI503
F728.1761053800583
sI504
F730.0351145863533
sI505
F721.0191860198975
sI506
F715.3698737621307
sI507
F739.8091703653336
sI508
F713.1658209562302
sI509
F724.6075952649117
sI510
F705.8050425648689
sI511
F730.4079717993736
sI512
F730.4825793504715
sI513
F727.9349081516266
sI514
F724.1953842639923
sI515
F745.8866713047028
sI516
F733.6443187594414
sI517
F739.4839957356453
sI518
F717.0812136530876
sI519
F724.0526285171509
sI520
F730.3056905269623
sI521
F734.499734222889
sI522
F716.5099479556084
sI523
F726.8691303133965
sI524
F726.849847972393
sI525
F721.582821726799
sI526
F725.0000255703926
sI527
F717.4305128455162
sI528
F713.4077865481377
sI529
F729.092215359211
sI530
F710.7143241167068
sI531
F738.9585552215576
sI532
F708.1087731719017
sI533
F716.4015523195267
sI534
F724.6489114165306
sI535
F726.5724603533745
sI536
F710.3889887332916
sI537
F730.5286853909492
sI538
F710.4266574978828
sI539
F729.7043809294701
sI540
F716.2087281942368
sI541
F711.2497476935387
sI542
F719.3005211949348
sI543
F735.626070857048
sI544
F711.8292052149773
sI545
F702.1627922654152
sI546
F714.4759714007378
sI547
F707.3554324507713
sI548
F721.5521616339684
sI549
F723.7315893173218
sI550
F724.3083359599113
sI551
F709.1290518641472
sI552
F713.5688108205795
sI553
F752.129624247551
sI554
F732.243901848793
sI555
F715.4088726043701
sI556
F730.8016478419304
sI557
F711.9336595535278
sI558
F716.8194075226784
sI559
F754.3501214981079
sI560
F719.1087657809258
sI561
F738.1555808782578
sI562
F736.5532227158546
sI563
F738.4989178776741
sI564
F722.265598833561
sI565
F722.0893255472183
sI566
F719.0961014032364
sI567
F721.1614042520523
sI568
F727.8950163125992
sI569
F712.5586413741112
sI570
F762.7499167323112
sI571
F717.2203861474991
sI572
F704.1057842969894
sI573
F709.4157947301865
sI574
F761.5270385146141
sI575
F765.1227045059204
sI576
F794.1272647976875
sI577
F765.2065061330795
sI578
F772.3618026375771
sI579
F777.2327541708946
sI580
F796.0960639119148
sI581
F768.9393897652626
sI582
F772.7736618518829
sI583
F761.9634547233582
sI584
F753.5947412252426
sI585
F748.0889246463776
sI586
F769.6753720641136
sI587
F771.2910490036011
sI588
F770.6907116174698
sI589
F764.5176272392273
sI590
F786.3638255596161
sI591
F740.6260006427765
sI592
F754.7808782458305
sI593
F786.4939032793045
sI594
F767.0078681707382
sI595
F791.7096818089485
sI596
F746.1322261691093
sI597
F762.3223123550415
sI598
F788.2898539304733
sI599
F763.3544732928276
sI600
F744.3135521411896
sI601
F751.8293898701668
sI602
F743.510204076767
sI603
F769.9140856862068
sI604
F775.6198537349701
sI605
F757.3200744390488
sI606
F755.9439126253128
sI607
F758.562980890274
sI608
F742.485925078392
sI609
F733.7025508582592
sI610
F758.6620189547539
sI611
F787.4277220964432
sI612
F761.3895279765129
sI613
F767.3211081027985
sI614
F760.1701339483261
sI615
F786.4891324043274
sI616
F771.7617118954659
sI617
F780.0489410161972
sI618
F756.9939474463463
sI619
F770.2903479933739
sI620
F768.9494670629501
sI621
F769.6753720641136
sI622
F773.6116928458214
sI623
F754.6757265329361
sI624
F746.9677473306656
sI625
F731.7386673092842
sI626
F738.3701560497284
sI627
F759.8263717889786
sI628
F763.7526116371155
sI629
F751.3799321651459
sI630
F766.420857489109
sI631
F741.0415515899658
sI632
F756.9835835695267
sI633
F750.6204795837402
sI634
F750.0733436346054
sI635
F766.9632437825203
sI636
F763.5281472206116
sI637
F745.2863883972168
sI638
F752.8802229762077
sI639
F758.7617865800858
sI640
F771.4925625324249
sI641
F741.0309351086617
sI642
F754.6064223051071
sI643
F731.7880148887634
sI644
F761.5792162418365
sI645
F755.254844546318
sI646
F756.2300086021423
sI647
F770.8354730606079
sI648
F765.4173151254654
sI649
F751.4585872292519
sI650
F781.5010516047478
sI651
F754.9997355043888
sI652
F743.1709712743759
sI653
F754.0003837347031
sI654
F754.1244747042656
sI655
F756.8116930127144
sI656
F782.3546329140663
sI657
F763.4806866049767
sI658
F746.8155952692032
sI659
F769.3043075203896
sI660
F754.7698805332184
sI661
F759.3592854738235
sI662
F766.6275448799133
sI663
F761.9357287883759
sI664
F758.9649037122726
sI665
F760.6344163417816
sI666
F778.8433175086975
sI667
F760.5967900753021
sI668
F768.3506872057915
sI669
F770.5504474639893
sI670
F754.649296939373
sI671
F743.2434599995613
sI672
F767.5643390417099
sI673
F750.528642654419
sI674
F749.5720427036285
sI675
F881.1361681818962
sI676
F900.1241131424904
sI677
F909.8012342453003
sI678
F882.2435696721077
sI679
F861.3020162582397
sI680
F896.4683083891869
sI681
F898.2323902249336
sI682
F870.4058235883713
sI683
F903.0326977968216
sI684
F873.2251175642014
sI685
F879.6764268875122
sI686
F862.2899098992348
sI687
F882.1331359148026
sI688
F902.9663591980934
sI689
F893.4995293021202
sI690
F911.534667134285
sI691
F886.6578575968742
sI692
F965.0100039243698
sI693
F921.5330867171288
sI694
F866.6926391124725
sI695
F887.0313717126846
sI696
F857.9974275827408
sI697
F836.6018368601799
sI698
F863.3605875372887
sI699
F836.2897022366524
sI700
F878.0617629885674
sI701
F866.1454938650131
sI702
F946.27809882164
sI703
F912.5729678273201
sI704
F918.5074700117111
sI705
F866.3550706505775
sI706
F855.6064884066582
sI707
F853.0759542584419
sI708
F860.5281375646591
sI709
F824.8879517316818
sI710
F886.2316929101944
sI711
F869.9419957995415
sI712
F915.0204727053642
sI713
F871.3337873220444
sI714
F867.9152641892433
sI715
F858.5122610330582
sI716
F856.1966843008995
sI717
F871.7832637429237
sI718
F839.3628504872322
sI719
F870.965825676918
sI720
F847.589914470911
sI721
F832.1871001124382
sI722
F911.314233481884
sI723
F903.3754678964615
sI724
F902.6017750501633
sI725
F878.9143178462982
sI726
F871.1773972511292
sI727
F878.3570849299431
sI728
F854.1609721779823
sI729
F903.0951926112175
sI730
F866.7882525920868
sI731
F926.3512240052223
sI732
F874.223827958107
sI733
F883.9320839643478
sI734
F894.4871586561203
sI735
F866.664633512497
sI736
F870.8932392001152
sI737
F874.6082532405853
sI738
F872.7128326892853
sI739
F932.448163330555
sI740
F837.0431978702545
sI741
F867.3778843283653
sI742
F898.9811701774597
sI743
F862.1943251490593
sI744
F883.2499128580093
sI745
F895.4834528565407
sI746
F835.8739901185036
sI747
F876.0486781597137
sI748
F892.860183596611
sI749
F895.4766576886177
sI750
F893.8004123568535
sI751
F835.1551500558853
sI752
F846.622189283371
sI753
F891.2401509284973
sI754
F876.6875560283661
sI755
F870.7809575796127
sI756
F839.6138456463814
sI757
F872.0223802924156
sI758
F911.2054795026779
sI759
F878.0472214221954
sI760
F911.6479094028473
sI761
F905.3108293414116
sI762
F889.1332492232323
sI763
F898.2019708156586
sI764
F903.6067432165146
sI765
F877.4928259849548
sI766
F889.405993938446
sI767
F854.194920539856
sI768
F908.7437290549278
sI769
F870.3076533079147
sI770
F953.9997364878654
sI771
F855.5406174063683
sI772
F884.1252291202545
sI773
F828.3395382165909
sI774
F904.7613837718964
sI775
F937.1240227222443
sI776
F869.7707862854004
sI777
F703.2189833521843
sI778
F881.1361681818962
sI779
F900.1241131424904
sI780
F909.8012342453003
sI781
F882.2435696721077
sI782
F861.3020162582397
sI783
F896.4683083891869
sI784
F898.2323902249336
sI785
F870.4058235883713
sI786
F903.0326977968216
sI787
F873.2251175642014
sI788
F879.6764268875122
sI789
F862.2899098992348
sI790
F882.1331359148026
sI791
F902.9663591980934
sI792
F893.4995293021202
sI793
F911.534667134285
sI794
F886.6578575968742
sI795
F965.0100039243698
sI796
F921.5330867171288
sI797
F866.6926391124725
sI798
F887.0313717126846
sI799
F857.9974275827408
sI800
F836.6018368601799
sI801
F863.3605875372887
sI802
F836.2897022366524
sI803
F878.0617629885674
sI804
F866.1454938650131
sI805
F946.27809882164
sI806
F912.5729678273201
sI807
F918.5074700117111
sI808
F866.3550706505775
sI809
F855.6064884066582
sI810
F853.0759542584419
sI811
F860.5281375646591
sI812
F824.8879517316818
sI813
F886.2316929101944
sI814
F869.9419957995415
sI815
F915.0204727053642
sI816
F871.3337873220444
sI817
F867.9152641892433
sI818
F858.5122610330582
sI819
F856.1966843008995
sI820
F871.7832637429237
sI821
F839.3628504872322
sI822
F870.965825676918
sI823
F847.589914470911
sI824
F832.1871001124382
sI825
F911.314233481884
sI826
F903.3754678964615
sI827
F902.6017750501633
sI828
F878.9143178462982
sI829
F871.1773972511292
sI830
F878.3570849299431
sI831
F854.1609721779823
sI832
F903.0951926112175
sI833
F866.7882525920868
sI834
F926.3512240052223
sI835
F874.223827958107
sI836
F883.9320839643478
sI837
F894.4871586561203
sI838
F866.664633512497
sI839
F870.8932392001152
sI840
F874.6082532405853
sI841
F872.7128326892853
sI842
F932.448163330555
sI843
F837.0431978702545
sI844
F867.3778843283653
sI845
F898.9811701774597
sI846
F862.1943251490593
sI847
F883.2499128580093
sI848
F895.4834528565407
sI849
F835.8739901185036
sI850
F876.0486781597137
sI851
F892.860183596611
sI852
F895.4766576886177
sI853
F893.8004123568535
sI854
F835.1551500558853
sI855
F846.622189283371
sI856
F891.2401509284973
sI857
F876.6875560283661
sI858
F870.7809575796127
sI859
F839.6138456463814
sI860
F872.0223802924156
sI861
F911.2054795026779
sI862
F878.0472214221954
sI863
F911.6479094028473
sI864
F905.3108293414116
sI865
F889.1332492232323
sI866
F898.2019708156586
sI867
F903.6067432165146
sI868
F877.4928259849548
sI869
F889.405993938446
sI870
F854.194920539856
sI871
F908.7437290549278
sI872
F870.3076533079147
sI873
F953.9997364878654
sI874
F855.5406174063683
sI875
F884.1252291202545
sI876
F828.3395382165909
sI877
F904.7613837718964
sI878
F937.1240227222443
sI879
F884.2264610528946
sI880
F880.9595491290092
sI881
F861.199789583683
sI-1
F99976.0
s.